

Microchip Technology PIC18 LITE Macro Assembler V1.33 build 59893 
                                                                                               Sun Sep 21 23:29:27 2014

Microchip Technology Omniscient Code Generator (Lite mode) build 59893
     1                           	processor	18F452
     2                           	fnconf	param0,??,?,0
     3                           	opt	pw 120
     4                           	opt	lm
     5                           	psect	idataBANK1,global,class=CODE,delta=1
     6                           	psect	smallconst,global,reloc=2,class=SMALLCONST,delta=1
     7                           	psect	cinit,global,reloc=2,class=CODE,delta=1
     8                           	psect	bssCOMRAM,global,class=COMRAM,space=1,delta=1
     9                           	psect	bssBANK0,global,class=BANK0,space=1,delta=1
    10                           	psect	bssBANK1,global,class=BANK1,space=1,delta=1
    11                           	psect	dataBANK1,global,class=BANK1,space=1,delta=1
    12                           	psect	cstackBANK1,global,class=BANK1,space=1,delta=1
    13                           	psect	cstackBANK0,global,class=BANK0,space=1,delta=1
    14                           	psect	cstackCOMRAM,global,class=COMRAM,space=1,delta=1
    15                           	psect	text0,global,reloc=2,class=CODE,delta=1
    16                           	psect	text1,global,reloc=2,class=CODE,delta=1
    17                           	psect	text2,global,reloc=2,class=CODE,delta=1
    18                           	psect	text3,global,reloc=2,class=CODE,delta=1
    19                           	psect	text4,global,reloc=2,class=CODE,delta=1
    20                           	psect	text5,global,reloc=2,class=CODE,delta=1
    21                           	psect	text6,global,reloc=2,class=CODE,delta=1
    22                           	psect	text7,global,reloc=2,class=CODE,delta=1
    23                           	psect	text8,global,reloc=2,class=CODE,delta=1
    24                           	psect	text9,global,reloc=2,class=CODE,delta=1
    25                           	psect	text10,global,reloc=2,class=CODE,delta=1
    26                           	psect	text11,global,reloc=2,class=CODE,delta=1
    27                           	psect	text12,global,reloc=2,class=CODE,delta=1
    28                           	psect	text13,global,reloc=2,class=CODE,delta=1
    29                           	psect	text14,global,reloc=2,class=CODE,delta=1
    30                           	psect	text15,global,reloc=2,class=CODE,delta=1
    31                           	psect	text16,global,reloc=2,class=CODE,delta=1
    32                           	psect	text17,global,reloc=2,class=CODE,delta=1
    33                           	psect	text18,global,reloc=2,class=CODE,delta=1
    34                           	psect	intcodelo,global,reloc=2,class=CODE,delta=1
    35                           	psect	text20,global,reloc=2,class=CODE,delta=1
    36                           	psect	text21,global,reloc=2,class=CODE,delta=1
    37                           	psect	text22,global,reloc=2,class=CODE,delta=1
    38                           	psect	text23,global,reloc=2,class=CODE,delta=1
    39                           	psect	text24,global,reloc=2,class=CODE,delta=1
    40                           	psect	text25,global,reloc=2,class=CODE,delta=1
    41                           	psect	text26,global,reloc=2,class=CODE,delta=1
    42                           	psect	text27,global,reloc=2,class=CODE,delta=1
    43                           	psect	text28,global,reloc=2,class=CODE,delta=1
    44                           	psect	intcode,global,reloc=2,class=CODE,delta=1
    45                           	psect	intcode_body,global,reloc=2,class=CODE,delta=1
    46                           	psect	intsave_regs,global,class=BIGRAM,space=1,delta=1
    47                           	psect	param0,global,class=BANK0,space=1,delta=1
    48  0000                     
    49                           	psect	idataBANK1
    50  001BE0                     __pidataBANK1:
    51                           	opt stack 0
    52                           
    53                           ;initializer for main@F3981
    54  001BE0  33                 	db	51
    55  001BE1  32                 	db	50
    56  001BE2  28                 	db	40
    57  001BE3  01                 	db	1
    58  001BE4  0C                 	db	12
    59  001BE5  06                 	db	6
    60  001BE6  00                 	db	0
    61                           
    62                           ;initializer for main@F3983
    63  001BE7  84                 	db	132
    64  001BE8  43                 	db	67
    65  001BE9  55                 	db	85
    66  001BEA  4E                 	db	78
    67  001BEB  54                 	db	84
    68  001BEC  00                 	db	0
    69                           
    70                           ;initializer for main@F3985
    71  001BED  C5                 	db	197
    72  001BEE  52                 	db	82
    73  001BEF  50                 	db	80
    74  001BF0  53                 	db	83
    75  001BF1  00                 	db	0
    76                           
    77                           	psect	smallconst
    78  000600                     __psmallconst:
    79                           	opt stack 0
    80  000600  00                 	db	0
    81  000601                     _QEM:
    82                           	opt stack 0
    83  000601  0000               	dw	0
    84  000603  FFFF               	dw	65535
    85  000605  0001               	dw	1
    86  000607  0002               	dw	2
    87  000609  0001               	dw	1
    88  00060B  0000               	dw	0
    89  00060D  0002               	dw	2
    90  00060F  FFFF               	dw	65535
    91  000611  FFFF               	dw	65535
    92  000613  0002               	dw	2
    93  000615  0000               	dw	0
    94  000617  0001               	dw	1
    95  000619  0002               	dw	2
    96  00061B  0001               	dw	1
    97  00061D  FFFF               	dw	65535
    98  00061F  0000               	dw	0
    99  000621                     __end_of_QEM:
   100                           	opt stack 0
   101  000621                     _CountPerRev:
   102                           	opt stack 0
   103  000621  0400               	dw	1024
   104  000623                     __end_of_CountPerRev:
   105                           	opt stack 0
   106  000623                     _EncoderPoll:
   107                           	opt stack 0
   108  000623  0032               	dw	50
   109  000625                     __end_of_EncoderPoll:
   110                           	opt stack 0
   111  0000                     _ADCON1	set	4033
   112  0000                     _CCP1CONbits	set	4029
   113  0000                     _CCPR1L	set	4030
   114  0000                     _INTCON2bits	set	4081
   115  0000                     _INTCONbits	set	4082
   116  0000                     _PORTA	set	3968
   117  0000                     _PORTAbits	set	3968
   118  0000                     _PORTBbits	set	3969
   119  0000                     _PORTD	set	3971
   120  0000                     _PORTEbits	set	3972
   121  0000                     _PR2	set	4043
   122  0000                     _RCONbits	set	4048
   123  0000                     _T0CONbits	set	4053
   124  0000                     _T2CONbits	set	4042
   125  0000                     _TMR0H	set	4055
   126  0000                     _TMR0L	set	4054
   127  0000                     _TRISA	set	3986
   128  0000                     _TRISBbits	set	3987
   129  0000                     _TRISCbits	set	3988
   130  0000                     _TRISD	set	3989
   131  0000                     _TRISE	set	3990
   132  0000                     _LATB4	set	31828
   133                           
   134                           ; #config settings
   135  000625  00                 	db	0	; dummy byte at the end
   136  0000                     
   137                           	psect	cinit
   138  001950                     __pcinit:
   139                           	opt stack 0
   140  001950                     start_initialization:
   141                           	opt stack 0
   142  001950                     __initialization:
   143                           	opt stack 0
   144                           
   145                           ; Clear objects allocated to BANK1 (3 bytes)
   146  001950  0101               	movlb	1
   147  001952  6B2E               	clrf	(__pbssBANK1+2)& (0+255),b
   148  001954  6B2D               	clrf	(__pbssBANK1+1)& (0+255),b
   149  001956  6B2C               	clrf	__pbssBANK1& (0+255),b
   150                           
   151                           ; Clear objects allocated to BANK0 (8 bytes)
   152  001958  EE00  F0D8         	lfsr	0,__pbssBANK0
   153  00195C  0E08               	movlw	8
   154  00195E                     clear_0:
   155  00195E  6AEE               	clrf	postinc0,c
   156  001960  06E8               	decf	wreg,f,c
   157  001962  E1FD               	bnz	clear_0
   158                           
   159                           ; Clear objects allocated to COMRAM (13 bytes)
   160  001964  EE00  F04D         	lfsr	0,__pbssCOMRAM
   161  001968  0E0D               	movlw	13
   162  00196A                     clear_1:
   163  00196A  6AEE               	clrf	postinc0,c
   164  00196C  06E8               	decf	wreg,f,c
   165  00196E  E1FD               	bnz	clear_1
   166                           
   167                           ; Initialize objects allocated to BANK1 (18 bytes)
   168                           ; load TBLPTR registers with __pidataBANK1
   169  001970  0EE0               	movlw	low __pidataBANK1
   170  001972  6EF6               	movwf	tblptrl,c
   171  001974  0E1B               	movlw	high __pidataBANK1
   172  001976  6EF7               	movwf	tblptrh,c
   173  001978  0E00               	movlw	low (__pidataBANK1 shr (0+16))
   174  00197A  6EF8               	movwf	tblptru,c
   175  00197C  EE01  F01A         	lfsr	0,__pdataBANK1
   176  001980  EE10 F012          	lfsr	1,18
   177  001984                     copy_data0:
   178  001984  0009               	tblrd		*+
   179  001986  CFF5 FFEE          	movff	tablat,postinc0
   180  00198A  50E5               	movf	postdec1,w,c
   181  00198C  50E1               	movf	fsr1l,w,c
   182  00198E  E1FA               	bnz	copy_data0
   183  001990                     end_of_initialization:
   184                           	opt stack 0
   185  001990                     __end_of__initialization:
   186                           	opt stack 0
   187  001990  0E00               	movlw	low (__Lsmallconst shr (0+16))
   188  001992  6EF8               	movwf	tblptru,c
   189  001994  0E06               	movlw	high __Lsmallconst
   190  001996  6EF7               	movwf	tblptrh,c
   191  001998  0100               	movlb	0
   192  00199A  EF95  F009         	goto	_main	;jump to C main() function
   193                           tblptru	equ	0xFF8
   194                           tblptrh	equ	0xFF7
   195                           tblptrl	equ	0xFF6
   196                           tablat	equ	0xFF5
   197                           postinc0	equ	0xFEE
   198                           wreg	equ	0xFE8
   199                           postdec1	equ	0xFE5
   200                           fsr1l	equ	0xFE1
   201                           
   202                           	psect	bssCOMRAM
   203  00004D                     __pbssCOMRAM:
   204                           	opt stack 0
   205  00004D                     _PartialRot:
   206                           	opt stack 0
   207  00004D                     	ds	3
   208  000050                     _CCWTurn:
   209                           	opt stack 0
   210  000050                     	ds	2
   211  000052                     _CHA:
   212                           	opt stack 0
   213  000052                     	ds	2
   214  000054                     _CHB:
   215                           	opt stack 0
   216  000054                     	ds	2
   217  000056                     _CWTurn:
   218                           	opt stack 0
   219  000056                     	ds	2
   220  000058                     _OLD_ROT:
   221                           	opt stack 0
   222  000058                     	ds	2
   223                           tblptru	equ	0xFF8
   224                           tblptrh	equ	0xFF7
   225                           tblptrl	equ	0xFF6
   226                           tablat	equ	0xFF5
   227                           postinc0	equ	0xFEE
   228                           wreg	equ	0xFE8
   229                           postdec1	equ	0xFE5
   230                           fsr1l	equ	0xFE1
   231                           
   232                           	psect	bssBANK0
   233  0000D8                     __pbssBANK0:
   234                           	opt stack 0
   235  0000D8                     _Msg3:
   236                           	opt stack 0
   237  0000D8                     	ds	8
   238                           tblptru	equ	0xFF8
   239                           tblptrh	equ	0xFF7
   240                           tblptrl	equ	0xFF6
   241                           tablat	equ	0xFF5
   242                           postinc0	equ	0xFEE
   243                           wreg	equ	0xFE8
   244                           postdec1	equ	0xFE5
   245                           fsr1l	equ	0xFE1
   246                           
   247                           	psect	bssBANK1
   248  00012C                     __pbssBANK1:
   249                           	opt stack 0
   250  00012C                     _RPS:
   251                           	opt stack 0
   252  00012C                     	ds	3
   253                           tblptru	equ	0xFF8
   254                           tblptrh	equ	0xFF7
   255                           tblptrl	equ	0xFF6
   256                           tablat	equ	0xFF5
   257                           postinc0	equ	0xFEE
   258                           wreg	equ	0xFE8
   259                           postdec1	equ	0xFE5
   260                           fsr1l	equ	0xFE1
   261                           
   262                           	psect	dataBANK1
   263  00011A                     __pdataBANK1:
   264                           	opt stack 0
   265  00011A                     main@F3981:
   266                           	opt stack 0
   267  00011A                     	ds	7
   268  000121                     main@F3983:
   269                           	opt stack 0
   270  000121                     	ds	6
   271  000127                     main@F3985:
   272                           	opt stack 0
   273  000127                     	ds	5
   274                           tblptru	equ	0xFF8
   275                           tblptrh	equ	0xFF7
   276                           tblptrl	equ	0xFF6
   277                           tablat	equ	0xFF5
   278                           postinc0	equ	0xFEE
   279                           wreg	equ	0xFE8
   280                           postdec1	equ	0xFE5
   281                           fsr1l	equ	0xFE1
   282                           
   283                           	psect	cstackBANK1
   284  000100                     __pcstackBANK1:
   285                           	opt stack 0
   286  000100                     ??_WriteLCD:
   287                           
   288                           ; 0 bytes @ 0x0
   289  000100                     	ds	4
   290  000104                     WriteLCD@firstDec:
   291                           	opt stack 0
   292                           
   293                           ; 2 bytes @ 0x4
   294  000104                     	ds	2
   295  000106                     WriteLCD@ii:
   296                           	opt stack 0
   297                           
   298                           ; 2 bytes @ 0x6
   299  000106                     	ds	2
   300  000108                     main@LCDinit:
   301                           	opt stack 0
   302                           
   303                           ; 7 bytes @ 0x8
   304  000108                     	ds	7
   305  00010F                     main@Msg1:
   306                           	opt stack 0
   307                           
   308                           ; 6 bytes @ 0xF
   309  00010F                     	ds	6
   310  000115                     main@Msg2:
   311                           	opt stack 0
   312                           
   313                           ; 5 bytes @ 0x15
   314  000115                     	ds	5
   315                           tblptru	equ	0xFF8
   316                           tblptrh	equ	0xFF7
   317                           tblptrl	equ	0xFF6
   318                           tablat	equ	0xFF5
   319                           postinc0	equ	0xFEE
   320                           wreg	equ	0xFE8
   321                           postdec1	equ	0xFE5
   322                           fsr1l	equ	0xFE1
   323                           
   324                           	psect	cstackBANK0
   325  000080                     __pcstackBANK0:
   326                           	opt stack 0
   327  000080                     ??_TimerStopped:
   328                           
   329                           ; 0 bytes @ 0x0
   330  000080                     	ds	17
   331  000091                     ??_high_isr:
   332                           
   333                           ; 0 bytes @ 0x11
   334  000091                     	ds	14
   335  00009F                     ?___ftpack:
   336                           	opt stack 0
   337  00009F                     ?___fttol:
   338                           	opt stack 0
   339  00009F                     Delay100TCYx@unit:
   340                           	opt stack 0
   341  00009F                     Delay10TCYx@unit:
   342                           	opt stack 0
   343  00009F                     Delay1KTCYx@unit:
   344                           	opt stack 0
   345  00009F                     WriteTimer0@timer0:
   346                           	opt stack 0
   347  00009F                     ___ftpack@arg:
   348                           	opt stack 0
   349  00009F                     ___ftge@ff1:
   350                           	opt stack 0
   351  00009F                     ___fttol@f1:
   352                           	opt stack 0
   353                           
   354                           ; 3 bytes @ 0x1F
   355  00009F                     	ds	1
   356  0000A0                     WaitHalfSec@Halfcount:
   357                           	opt stack 0
   358  0000A0                     DisplayLCD@tempPtr:
   359                           	opt stack 0
   360                           
   361                           ; 2 bytes @ 0x20
   362  0000A0                     	ds	1
   363  0000A1                     WriteTimer0@timer:
   364                           	opt stack 0
   365                           
   366                           ; 2 bytes @ 0x21
   367  0000A1                     	ds	1
   368  0000A2                     ___ftpack@exp:
   369                           	opt stack 0
   370  0000A2                     DisplayLCD@init:
   371                           	opt stack 0
   372  0000A2                     ___ftge@ff2:
   373                           	opt stack 0
   374                           
   375                           ; 3 bytes @ 0x22
   376  0000A2                     	ds	1
   377  0000A3                     ??___fttol:
   378  0000A3                     ___ftpack@sign:
   379                           	opt stack 0
   380                           
   381                           ; 1 bytes @ 0x23
   382  0000A3                     	ds	1
   383  0000A4                     ??___ftpack:
   384  0000A4                     DisplayLCD@currentChar:
   385                           	opt stack 0
   386                           
   387                           ; 1 bytes @ 0x24
   388  0000A4                     	ds	1
   389  0000A5                     ??___ftge:
   390                           
   391                           ; 0 bytes @ 0x25
   392  0000A5                     	ds	2
   393  0000A7                     ?___ftdiv:
   394                           	opt stack 0
   395  0000A7                     ___ftdiv@f1:
   396                           	opt stack 0
   397                           
   398                           ; 3 bytes @ 0x27
   399  0000A7                     	ds	1
   400  0000A8                     ___fttol@sign1:
   401                           	opt stack 0
   402                           
   403                           ; 1 bytes @ 0x28
   404  0000A8                     	ds	1
   405  0000A9                     ___fttol@lval:
   406                           	opt stack 0
   407                           
   408                           ; 4 bytes @ 0x29
   409  0000A9                     	ds	1
   410  0000AA                     ___ftdiv@f2:
   411                           	opt stack 0
   412                           
   413                           ; 3 bytes @ 0x2A
   414  0000AA                     	ds	3
   415  0000AD                     ??___ftdiv:
   416  0000AD                     ___fttol@exp1:
   417                           	opt stack 0
   418                           
   419                           ; 1 bytes @ 0x2D
   420  0000AD                     	ds	1
   421  0000AE                     ?___awtoft:
   422                           	opt stack 0
   423  0000AE                     ___awtoft@c:
   424                           	opt stack 0
   425                           
   426                           ; 2 bytes @ 0x2E
   427  0000AE                     	ds	2
   428  0000B0                     ___ftdiv@cntr:
   429                           	opt stack 0
   430                           
   431                           ; 1 bytes @ 0x30
   432  0000B0                     	ds	1
   433  0000B1                     ___awtoft@sign:
   434                           	opt stack 0
   435  0000B1                     ___ftdiv@f3:
   436                           	opt stack 0
   437                           
   438                           ; 3 bytes @ 0x31
   439  0000B1                     	ds	1
   440  0000B2                     ?___ftneg:
   441                           	opt stack 0
   442  0000B2                     ___ftneg@f1:
   443                           	opt stack 0
   444                           
   445                           ; 3 bytes @ 0x32
   446  0000B2                     	ds	2
   447  0000B4                     ___ftdiv@exp:
   448                           	opt stack 0
   449                           
   450                           ; 1 bytes @ 0x34
   451  0000B4                     	ds	1
   452  0000B5                     ?___ftadd:
   453                           	opt stack 0
   454  0000B5                     ___ftdiv@sign:
   455                           	opt stack 0
   456  0000B5                     ___ftadd@f1:
   457                           	opt stack 0
   458                           
   459                           ; 3 bytes @ 0x35
   460  0000B5                     	ds	3
   461  0000B8                     ___ftadd@f2:
   462                           	opt stack 0
   463                           
   464                           ; 3 bytes @ 0x38
   465  0000B8                     	ds	3
   466  0000BB                     ??___ftadd:
   467                           
   468                           ; 0 bytes @ 0x3B
   469  0000BB                     	ds	3
   470  0000BE                     ___ftadd@sign:
   471                           	opt stack 0
   472                           
   473                           ; 1 bytes @ 0x3E
   474  0000BE                     	ds	1
   475  0000BF                     ___ftadd@exp2:
   476                           	opt stack 0
   477                           
   478                           ; 1 bytes @ 0x3F
   479  0000BF                     	ds	1
   480  0000C0                     ___ftadd@exp1:
   481                           	opt stack 0
   482                           
   483                           ; 1 bytes @ 0x40
   484  0000C0                     	ds	1
   485  0000C1                     ?___ftmul:
   486                           	opt stack 0
   487  0000C1                     ___ftmul@f1:
   488                           	opt stack 0
   489                           
   490                           ; 3 bytes @ 0x41
   491  0000C1                     	ds	3
   492  0000C4                     ___ftmul@f2:
   493                           	opt stack 0
   494                           
   495                           ; 3 bytes @ 0x44
   496  0000C4                     	ds	3
   497  0000C7                     ??___ftmul:
   498                           
   499                           ; 0 bytes @ 0x47
   500  0000C7                     	ds	3
   501  0000CA                     ___ftmul@exp:
   502                           	opt stack 0
   503                           
   504                           ; 1 bytes @ 0x4A
   505  0000CA                     	ds	1
   506  0000CB                     ___ftmul@f3_as_product:
   507                           	opt stack 0
   508                           
   509                           ; 3 bytes @ 0x4B
   510  0000CB                     	ds	3
   511  0000CE                     ___ftmul@cntr:
   512                           	opt stack 0
   513                           
   514                           ; 1 bytes @ 0x4E
   515  0000CE                     	ds	1
   516  0000CF                     ___ftmul@sign:
   517                           	opt stack 0
   518                           
   519                           ; 1 bytes @ 0x4F
   520  0000CF                     	ds	1
   521  0000D0                     WriteLCD@LCDstart:
   522                           	opt stack 0
   523                           
   524                           ; 2 bytes @ 0x50
   525  0000D0                     	ds	2
   526  0000D2                     WriteLCD@dispLength:
   527                           	opt stack 0
   528                           
   529                           ; 2 bytes @ 0x52
   530  0000D2                     	ds	2
   531  0000D4                     WriteLCD@var:
   532                           	opt stack 0
   533                           
   534                           ; 3 bytes @ 0x54
   535  0000D4                     	ds	3
   536  0000D7                     ??_main:
   537                           
   538                           ; 0 bytes @ 0x57
   539  0000D7                     	ds	1
   540                           tblptru	equ	0xFF8
   541                           tblptrh	equ	0xFF7
   542                           tblptrl	equ	0xFF6
   543                           tablat	equ	0xFF5
   544                           postinc0	equ	0xFEE
   545                           wreg	equ	0xFE8
   546                           postdec1	equ	0xFE5
   547                           fsr1l	equ	0xFE1
   548                           
   549                           	psect	cstackCOMRAM
   550  000001                     __pcstackCOMRAM:
   551                           	opt stack 0
   552  000001                     ?i1___ftpack:
   553                           	opt stack 0
   554  000001                     ?i1___ftneg:
   555                           	opt stack 0
   556  000001                     i1WriteTimer0@timer0:
   557                           	opt stack 0
   558  000001                     i1___ftpack@arg:
   559                           	opt stack 0
   560  000001                     i1___ftneg@f1:
   561                           	opt stack 0
   562                           
   563                           ; 3 bytes @ 0x0
   564  000001                     	ds	2
   565  000003                     i1WriteTimer0@timer:
   566                           	opt stack 0
   567                           
   568                           ; 2 bytes @ 0x2
   569  000003                     	ds	1
   570  000004                     ?_fabs:
   571                           	opt stack 0
   572  000004                     i1___ftpack@exp:
   573                           	opt stack 0
   574  000004                     fabs@d:
   575                           	opt stack 0
   576                           
   577                           ; 3 bytes @ 0x3
   578  000004                     	ds	1
   579  000005                     i1___ftpack@sign:
   580                           	opt stack 0
   581                           
   582                           ; 1 bytes @ 0x4
   583  000005                     	ds	1
   584  000006                     ??i1___ftpack:
   585                           
   586                           ; 0 bytes @ 0x5
   587  000006                     	ds	1
   588  000007                     
   589                           ; 0 bytes @ 0x6
   590  000007                     	ds	2
   591  000009                     ?i1___awtoft:
   592                           	opt stack 0
   593  000009                     i1___awtoft@c:
   594                           	opt stack 0
   595                           
   596                           ; 2 bytes @ 0x8
   597  000009                     	ds	3
   598  00000C                     i1___awtoft@sign:
   599                           	opt stack 0
   600                           
   601                           ; 1 bytes @ 0xB
   602  00000C                     	ds	1
   603  00000D                     ?i1___ftdiv:
   604                           	opt stack 0
   605  00000D                     i1___ftdiv@f1:
   606                           	opt stack 0
   607                           
   608                           ; 3 bytes @ 0xC
   609  00000D                     	ds	3
   610  000010                     i1___ftdiv@f2:
   611                           	opt stack 0
   612                           
   613                           ; 3 bytes @ 0xF
   614  000010                     	ds	3
   615  000013                     ??i1___ftdiv:
   616                           
   617                           ; 0 bytes @ 0x12
   618  000013                     	ds	3
   619  000016                     i1___ftdiv@cntr:
   620                           	opt stack 0
   621                           
   622                           ; 1 bytes @ 0x15
   623  000016                     	ds	1
   624  000017                     i1___ftdiv@f3:
   625                           	opt stack 0
   626                           
   627                           ; 3 bytes @ 0x16
   628  000017                     	ds	3
   629  00001A                     i1___ftdiv@exp:
   630                           	opt stack 0
   631                           
   632                           ; 1 bytes @ 0x19
   633  00001A                     	ds	1
   634  00001B                     i1___ftdiv@sign:
   635                           	opt stack 0
   636                           
   637                           ; 1 bytes @ 0x1A
   638  00001B                     	ds	1
   639  00001C                     ?i1___ftadd:
   640                           	opt stack 0
   641  00001C                     i1___ftadd@f1:
   642                           	opt stack 0
   643                           
   644                           ; 3 bytes @ 0x1B
   645  00001C                     	ds	3
   646  00001F                     i1___ftadd@f2:
   647                           	opt stack 0
   648                           
   649                           ; 3 bytes @ 0x1E
   650  00001F                     	ds	3
   651  000022                     ??i1___ftadd:
   652                           
   653                           ; 0 bytes @ 0x21
   654  000022                     	ds	3
   655  000025                     i1___ftadd@sign:
   656                           	opt stack 0
   657                           
   658                           ; 1 bytes @ 0x24
   659  000025                     	ds	1
   660  000026                     i1___ftadd@exp2:
   661                           	opt stack 0
   662                           
   663                           ; 1 bytes @ 0x25
   664  000026                     	ds	1
   665  000027                     i1___ftadd@exp1:
   666                           	opt stack 0
   667                           
   668                           ; 1 bytes @ 0x26
   669  000027                     	ds	1
   670  000028                     ?___ftsub:
   671                           	opt stack 0
   672  000028                     ___ftsub@f1:
   673                           	opt stack 0
   674                           
   675                           ; 3 bytes @ 0x27
   676  000028                     	ds	3
   677  00002B                     ___ftsub@f2:
   678                           	opt stack 0
   679                           
   680                           ; 3 bytes @ 0x2A
   681  00002B                     	ds	3
   682  00002E                     ??_ReadEncoder:
   683  00002E                     
   684                           ; 0 bytes @ 0x2D
   685  00002E                     	ds	4
   686  000032                     ReadEncoder@Old:
   687                           	opt stack 0
   688                           
   689                           ; 2 bytes @ 0x31
   690  000032                     	ds	2
   691  000034                     ReadEncoder@New:
   692                           	opt stack 0
   693                           
   694                           ; 2 bytes @ 0x33
   695  000034                     	ds	2
   696  000036                     ReadEncoder@Anew:
   697                           	opt stack 0
   698                           
   699                           ; 2 bytes @ 0x35
   700  000036                     	ds	2
   701  000038                     ReadEncoder@Bnew:
   702                           	opt stack 0
   703                           
   704                           ; 2 bytes @ 0x37
   705  000038                     	ds	2
   706  00003A                     ReadEncoder@NEW_ROT:
   707                           	opt stack 0
   708                           
   709                           ; 2 bytes @ 0x39
   710  00003A                     	ds	2
   711  00003C                     ??_low_isr:
   712                           
   713                           ; 0 bytes @ 0x3B
   714  00003C                     	ds	17
   715                           tblptru	equ	0xFF8
   716                           tblptrh	equ	0xFF7
   717                           tblptrl	equ	0xFF6
   718                           tablat	equ	0xFF5
   719                           postinc0	equ	0xFEE
   720                           wreg	equ	0xFE8
   721                           postdec1	equ	0xFE5
   722                           fsr1l	equ	0xFE1
   723                           
   724 ;;
   725 ;;Main: autosize = 0, tempsize = 1, incstack = 0, save=0
   726 ;;
   727 ;; *************** function _main *****************
   728 ;; Defined at:
   729 ;;		line 41 in file "main.c"
   730 ;; Parameters:    Size  Location     Type
   731 ;;		None
   732 ;; Auto vars:     Size  Location     Type
   733 ;;  LCDinit         7    8[BANK1 ] unsigned char [7]
   734 ;;  Msg1            6   15[BANK1 ] unsigned char [6]
   735 ;;  Msg2            5   21[BANK1 ] unsigned char [5]
   736 ;; Return value:  Size  Location     Type
   737 ;;                  2   52[COMRAM] int 
   738 ;; Registers used:
   739 ;;		wreg, fsr1l, fsr1h, fsr2l, fsr2h, status,2, status,0, prodl, cstack
   740 ;; Tracked objects:
   741 ;;		On entry : 0/0
   742 ;;		On exit  : 0/0
   743 ;;		Unchanged: 0/0
   744 ;; Data sizes:     COMRAM   BANK0   BANK1   BANK2   BANK3   BANK4   BANK5
   745 ;;      Params:         0       0       0       0       0       0       0
   746 ;;      Locals:         0       0      18       0       0       0       0
   747 ;;      Temps:          0       1       0       0       0       0       0
   748 ;;      Totals:         0       1      18       0       0       0       0
   749 ;;Total ram usage:       19 bytes
   750 ;; Hardware stack levels required when called:    9
   751 ;; This function calls:
   752 ;;		_CloseTimer0
   753 ;;		_Delay1KTCYx
   754 ;;		_DisplayLCD
   755 ;;		_InitApp
   756 ;;		_InitInterrupts
   757 ;;		_WriteLCD
   758 ;;		_WriteTimer0
   759 ;; This function is called by:
   760 ;;		Startup code after reset
   761 ;; This function uses a non-reentrant model
   762 ;;
   763                           
   764                           	psect	text0
   765  00132A                     __ptext0:
   766                           	opt stack 0
   767  00132A                     _main:
   768                           	opt stack 22
   769                           
   770                           ;incstack = 0
   771  00132A  FFFF               	dw	65535
   772                           
   773                           ;main.c: 45: char LCDinit[] = {0x33,0x32,0x28,0x01,0x0c,0x06,0x00};
   774  00132C  EE21  F01A         	lfsr	2,main@F3981
   775  001330  EE11  F008         	lfsr	1,main@LCDinit
   776  001334  0E07               	movlw	7
   777  001336                     u2911:
   778  001336  CFDE FFE6          	movff	postinc2,postinc1
   779  00133A  2EE8               	decfsz	wreg,f,c
   780  00133C  D7FC               	goto	u2911
   781                           
   782                           ;main.c: 46: char Msg1[] = {0x84,'C','U','N','T','\0'};
   783  00133E  EE21  F021         	lfsr	2,main@F3983
   784  001342  EE11  F00F         	lfsr	1,main@Msg1
   785  001346  0E06               	movlw	6
   786  001348                     u2921:
   787  001348  CFDE FFE6          	movff	postinc2,postinc1
   788  00134C  2EE8               	decfsz	wreg,f,c
   789  00134E  D7FC               	goto	u2921
   790                           
   791                           ;main.c: 47: char Msg2[] = {0xC5,'R','P','S','\0'};
   792  001350  EE21  F027         	lfsr	2,main@F3985
   793  001354  EE11  F015         	lfsr	1,main@Msg2
   794  001358  0E05               	movlw	5
   795  00135A                     u2931:
   796  00135A  CFDE FFE6          	movff	postinc2,postinc1
   797  00135E  2EE8               	decfsz	wreg,f,c
   798  001360  D7FC               	goto	u2931
   799                           
   800                           ;main.c: 48: InitApp();
   801  001362  EC18  F00D         	call	_InitApp	;wreg free
   802                           
   803                           ;main.c: 49: DisplayLCD(LCDinit,1);
   804  001366  0101               	movlb	1	; () banked
   805  001368  0E01               	movlw	high main@LCDinit
   806  00136A  0100               	movlb	0	; () banked
   807  00136C  6FA1               	movwf	(DisplayLCD@tempPtr+1)& (0+255),b
   808  00136E  0101               	movlb	1	; () banked
   809  001370  0E08               	movlw	low main@LCDinit
   810  001372  0100               	movlb	0	; () banked
   811  001374  6FA0               	movwf	DisplayLCD@tempPtr& (0+255),b
   812  001376  0E00               	movlw	0
   813  001378  0100               	movlb	0	; () banked
   814  00137A  6FA3               	movwf	(DisplayLCD@init+1)& (0+255),b
   815  00137C  0E01               	movlw	1
   816  00137E  0100               	movlb	0	; () banked
   817  001380  6FA2               	movwf	DisplayLCD@init& (0+255),b
   818  001382  ECEE  F00B         	call	_DisplayLCD	;wreg free
   819                           
   820                           ;main.c: 50: DisplayLCD(Msg1,0);
   821  001386  0101               	movlb	1	; () banked
   822  001388  0E01               	movlw	high main@Msg1
   823  00138A  0100               	movlb	0	; () banked
   824  00138C  6FA1               	movwf	(DisplayLCD@tempPtr+1)& (0+255),b
   825  00138E  0101               	movlb	1	; () banked
   826  001390  0E0F               	movlw	low main@Msg1
   827  001392  0100               	movlb	0	; () banked
   828  001394  6FA0               	movwf	DisplayLCD@tempPtr& (0+255),b
   829  001396  0E00               	movlw	0
   830  001398  0100               	movlb	0	; () banked
   831  00139A  6FA3               	movwf	(DisplayLCD@init+1)& (0+255),b
   832  00139C  0E00               	movlw	0
   833  00139E  0100               	movlb	0	; () banked
   834  0013A0  6FA2               	movwf	DisplayLCD@init& (0+255),b
   835  0013A2  ECEE  F00B         	call	_DisplayLCD	;wreg free
   836                           
   837                           ;main.c: 51: DisplayLCD(Msg2,0);
   838  0013A6  0101               	movlb	1	; () banked
   839  0013A8  0E01               	movlw	high main@Msg2
   840  0013AA  0100               	movlb	0	; () banked
   841  0013AC  6FA1               	movwf	(DisplayLCD@tempPtr+1)& (0+255),b
   842  0013AE  0101               	movlb	1	; () banked
   843  0013B0  0E15               	movlw	low main@Msg2
   844  0013B2  0100               	movlb	0	; () banked
   845  0013B4  6FA0               	movwf	DisplayLCD@tempPtr& (0+255),b
   846  0013B6  0E00               	movlw	0
   847  0013B8  0100               	movlb	0	; () banked
   848  0013BA  6FA3               	movwf	(DisplayLCD@init+1)& (0+255),b
   849  0013BC  0E00               	movlw	0
   850  0013BE  0100               	movlb	0	; () banked
   851  0013C0  6FA2               	movwf	DisplayLCD@init& (0+255),b
   852  0013C2  ECEE  F00B         	call	_DisplayLCD	;wreg free
   853                           
   854                           ;main.c: 52: CHA = PORTBbits.RB5;
   855  0013C6  AA81               	btfss	3969,5,c	;volatile
   856  0013C8  D004               	goto	u2940
   857  0013CA  0100               	movlb	0	; () banked
   858  0013CC  6BD7               	clrf	??_main& (0+255),b
   859  0013CE  2BD7               	incf	??_main& (0+255),f,b
   860  0013D0  D002               	goto	u2948
   861  0013D2                     u2940:
   862  0013D2  0100               	movlb	0	; () banked
   863  0013D4  6BD7               	clrf	??_main& (0+255),b
   864  0013D6                     u2948:
   865  0013D6  0100               	movlb	0	; () banked
   866  0013D8  51D7               	movf	??_main& (0+255),w,b
   867  0013DA  6E52               	movwf	_CHA,c
   868  0013DC  6A53               	clrf	_CHA+1,c
   869                           
   870                           ; BSR set to: 0
   871                           ;main.c: 53: CHB = PORTBbits.RB4;
   872  0013DE  A881               	btfss	3969,4,c	;volatile
   873  0013E0  D004               	goto	u2950
   874  0013E2  0100               	movlb	0	; () banked
   875  0013E4  6BD7               	clrf	??_main& (0+255),b
   876  0013E6  2BD7               	incf	??_main& (0+255),f,b
   877  0013E8  D002               	goto	u2958
   878  0013EA                     u2950:
   879  0013EA  0100               	movlb	0	; () banked
   880  0013EC  6BD7               	clrf	??_main& (0+255),b
   881  0013EE                     u2958:
   882  0013EE  0100               	movlb	0	; () banked
   883  0013F0  51D7               	movf	??_main& (0+255),w,b
   884  0013F2  6E54               	movwf	_CHB,c
   885  0013F4  6A55               	clrf	_CHB+1,c
   886                           
   887                           ; BSR set to: 0
   888                           ;main.c: 54: OLD_ROT = 0;
   889  0013F6  0E00               	movlw	0
   890  0013F8  6E59               	movwf	_OLD_ROT+1,c
   891  0013FA  0E00               	movlw	0
   892  0013FC  6E58               	movwf	_OLD_ROT,c
   893                           
   894                           ; BSR set to: 0
   895                           ;main.c: 55: CCWTurn = 0;
   896  0013FE  0E00               	movlw	0
   897  001400  6E51               	movwf	_CCWTurn+1,c
   898  001402  0E00               	movlw	0
   899  001404  6E50               	movwf	_CCWTurn,c
   900                           
   901                           ; BSR set to: 0
   902                           ;main.c: 56: CWTurn = 0;
   903  001406  0E00               	movlw	0
   904  001408  6E57               	movwf	_CWTurn+1,c
   905  00140A  0E00               	movlw	0
   906  00140C  6E56               	movwf	_CWTurn,c
   907                           
   908                           ; BSR set to: 0
   909                           ;main.c: 57: RPS = 0.0;
   910  00140E  0E00               	movlw	0
   911  001410  0101               	movlb	1	; () banked
   912  001412  6F2C               	movwf	_RPS& (0+255),b
   913  001414  0E00               	movlw	0
   914  001416  0101               	movlb	1	; () banked
   915  001418  6F2D               	movwf	(_RPS+1)& (0+255),b
   916  00141A  0E00               	movlw	0
   917  00141C  0101               	movlb	1	; () banked
   918  00141E  6F2E               	movwf	(_RPS+2)& (0+255),b
   919                           
   920                           ; BSR set to: 1
   921                           ;main.c: 59: PR2 = 0xF9;
   922  001420  0EF9               	movlw	249
   923  001422  6ECB               	movwf	4043,c	;volatile
   924                           
   925                           ; BSR set to: 1
   926                           ;main.c: 60: CCP1CONbits.DC1B1 = 1;
   927  001424  8ABD               	bsf	4029,5,c	;volatile
   928                           
   929                           ; BSR set to: 1
   930                           ;main.c: 61: CCP1CONbits.DC1B0 = 0;
   931  001426  98BD               	bcf	4029,4,c	;volatile
   932                           
   933                           ; BSR set to: 1
   934                           ;main.c: 62: CCPR1L = 0b00000000;
   935  001428  0E00               	movlw	0
   936  00142A  6EBE               	movwf	4030,c	;volatile
   937                           
   938                           ; BSR set to: 1
   939                           ;main.c: 64: WriteTimer0(0x0000);
   940  00142C  0E00               	movlw	0
   941  00142E  0100               	movlb	0	; () banked
   942  001430  6FA0               	movwf	(WriteTimer0@timer0+1)& (0+255),b
   943  001432  0E00               	movlw	0
   944  001434  0100               	movlb	0	; () banked
   945  001436  6F9F               	movwf	WriteTimer0@timer0& (0+255),b
   946  001438  ECC4  F00D         	call	_WriteTimer0	;wreg free
   947                           
   948                           ;main.c: 66: InitInterrupts();
   949  00143C  EC8B  F00D         	call	_InitInterrupts	;wreg free
   950  001440                     l2701:
   951                           
   952                           ;main.c: 72: {
   953                           ;main.c: 73: Delay1KTCYx(25);
   954  001440  0E19               	movlw	25
   955  001442  ECDA  F00D         	call	_Delay1KTCYx
   956                           
   957                           ;main.c: 74: WriteLCD(0xC0,5,RPS);
   958  001446  0E00               	movlw	0
   959  001448  0100               	movlb	0	; () banked
   960  00144A  6FD1               	movwf	(WriteLCD@LCDstart+1)& (0+255),b
   961  00144C  0EC0               	movlw	192
   962  00144E  0100               	movlb	0	; () banked
   963  001450  6FD0               	movwf	WriteLCD@LCDstart& (0+255),b
   964  001452  0E00               	movlw	0
   965  001454  0100               	movlb	0	; () banked
   966  001456  6FD3               	movwf	(WriteLCD@dispLength+1)& (0+255),b
   967  001458  0E05               	movlw	5
   968  00145A  0100               	movlb	0	; () banked
   969  00145C  6FD2               	movwf	WriteLCD@dispLength& (0+255),b
   970  00145E  C12C  F0D4         	movff	_RPS,WriteLCD@var
   971  001462  C12D  F0D5         	movff	_RPS+1,WriteLCD@var+1
   972  001466  C12E  F0D6         	movff	_RPS+2,WriteLCD@var+2
   973  00146A  EC13  F003         	call	_WriteLCD	;wreg free
   974  00146E  D7E8               	goto	l2701
   975  001470                     __end_of_main:
   976                           	opt stack 0
   977                           tblptru	equ	0xFF8
   978                           tblptrh	equ	0xFF7
   979                           tblptrl	equ	0xFF6
   980                           tablat	equ	0xFF5
   981                           postinc0	equ	0xFEE
   982                           wreg	equ	0xFE8
   983                           postinc1	equ	0xFE6
   984                           postdec1	equ	0xFE5
   985                           fsr1l	equ	0xFE1
   986                           postinc2	equ	0xFDE
   987                           
   988 ;; *************** function _WriteTimer0 *****************
   989 ;; Defined at:
   990 ;;		line 16 in file "/Applications/microchip/xc8/v1.33/sources/pic18/plib/Timers/t0write.c"
   991 ;; Parameters:    Size  Location     Type
   992 ;;  timer0          2   31[BANK0 ] unsigned int 
   993 ;; Auto vars:     Size  Location     Type
   994 ;;  timer           2   33[BANK0 ] struct Timers
   995 ;; Return value:  Size  Location     Type
   996 ;;		None               void
   997 ;; Registers used:
   998 ;;		None
   999 ;; Tracked objects:
  1000 ;;		On entry : 0/0
  1001 ;;		On exit  : 0/0
  1002 ;;		Unchanged: 0/0
  1003 ;; Data sizes:     COMRAM   BANK0   BANK1   BANK2   BANK3   BANK4   BANK5
  1004 ;;      Params:         0       2       0       0       0       0       0
  1005 ;;      Locals:         0       2       0       0       0       0       0
  1006 ;;      Temps:          0       0       0       0       0       0       0
  1007 ;;      Totals:         0       4       0       0       0       0       0
  1008 ;;Total ram usage:        4 bytes
  1009 ;; Hardware stack levels used:    1
  1010 ;; Hardware stack levels required when called:    6
  1011 ;; This function calls:
  1012 ;;		Nothing
  1013 ;; This function is called by:
  1014 ;;		_main
  1015 ;; This function uses a non-reentrant model
  1016 ;;
  1017                           
  1018                           	psect	text1
  1019  001B88                     __ptext1:
  1020                           	opt stack 0
  1021  001B88                     _WriteTimer0:
  1022                           	opt stack 24
  1023                           
  1024                           ;incstack = 0
  1025  001B88  FFFF               	dw	65535
  1026  001B8A  C09F  F0A1         	movff	WriteTimer0@timer0,WriteTimer0@timer
  1027  001B8E  C0A0  F0A2         	movff	WriteTimer0@timer0+1,WriteTimer0@timer+1
  1028  001B92  C0A2  FFD7         	movff	WriteTimer0@timer+1,4055	;volatile
  1029  001B96  C0A1  FFD6         	movff	WriteTimer0@timer,4054	;volatile
  1030  001B9A  0012               	return	
  1031  001B9C  FFFF               	dw	65535	; errata NOP
  1032  001B9E                     __end_of_WriteTimer0:
  1033                           	opt stack 0
  1034                           tblptru	equ	0xFF8
  1035                           tblptrh	equ	0xFF7
  1036                           tblptrl	equ	0xFF6
  1037                           tablat	equ	0xFF5
  1038                           postinc0	equ	0xFEE
  1039                           wreg	equ	0xFE8
  1040                           postinc1	equ	0xFE6
  1041                           postdec1	equ	0xFE5
  1042                           fsr1l	equ	0xFE1
  1043                           postinc2	equ	0xFDE
  1044                           
  1045 ;; *************** function _WriteLCD *****************
  1046 ;; Defined at:
  1047 ;;		line 267 in file "user.c"
  1048 ;; Parameters:    Size  Location     Type
  1049 ;;  LCDstart        2   80[BANK0 ] int 
  1050 ;;  dispLength      2   82[BANK0 ] int 
  1051 ;;  var             3   84[BANK0 ] int 
  1052 ;; Auto vars:     Size  Location     Type
  1053 ;;  ii              2    6[BANK1 ] int 
  1054 ;;  firstDec        2    4[BANK1 ] int 
  1055 ;; Return value:  Size  Location     Type
  1056 ;;		None               void
  1057 ;; Registers used:
  1058 ;;		wreg, fsr2l, fsr2h, status,2, status,0, prodl, cstack
  1059 ;; Tracked objects:
  1060 ;;		On entry : 0/0
  1061 ;;		On exit  : 0/0
  1062 ;;		Unchanged: 0/0
  1063 ;; Data sizes:     COMRAM   BANK0   BANK1   BANK2   BANK3   BANK4   BANK5
  1064 ;;      Params:         0       7       0       0       0       0       0
  1065 ;;      Locals:         0       0       4       0       0       0       0
  1066 ;;      Temps:          0       0       4       0       0       0       0
  1067 ;;      Totals:         0       7       8       0       0       0       0
  1068 ;;Total ram usage:       15 bytes
  1069 ;; Hardware stack levels used:    1
  1070 ;; Hardware stack levels required when called:    8
  1071 ;; This function calls:
  1072 ;;		_DisplayLCD
  1073 ;;		___awtoft
  1074 ;;		___ftadd
  1075 ;;		___ftdiv
  1076 ;;		___ftge
  1077 ;;		___ftmul
  1078 ;;		___ftneg
  1079 ;;		___fttol
  1080 ;; This function is called by:
  1081 ;;		_main
  1082 ;; This function uses a non-reentrant model
  1083 ;;
  1084                           
  1085                           	psect	text2
  1086  000626                     __ptext2:
  1087                           	opt stack 0
  1088  000626                     _WriteLCD:
  1089                           	opt stack 22
  1090                           
  1091                           ;incstack = 0
  1092  000626  FFFF               	dw	65535
  1093                           
  1094                           ;user.c: 269: int ii = 1;
  1095  000628  0E00               	movlw	0
  1096  00062A  0101               	movlb	1	; () banked
  1097  00062C  6F07               	movwf	(WriteLCD@ii+1)& (0+255),b
  1098  00062E  0E01               	movlw	1
  1099  000630  0101               	movlb	1	; () banked
  1100  000632  6F06               	movwf	WriteLCD@ii& (0+255),b
  1101                           
  1102                           ;user.c: 270: int firstDec = 0;
  1103  000634  0E00               	movlw	0
  1104  000636  0101               	movlb	1	; () banked
  1105  000638  6F05               	movwf	(WriteLCD@firstDec+1)& (0+255),b
  1106  00063A  0E00               	movlw	0
  1107  00063C  0101               	movlb	1	; () banked
  1108  00063E  6F04               	movwf	WriteLCD@firstDec& (0+255),b
  1109                           
  1110                           ; BSR set to: 1
  1111                           ;user.c: 271: Msg3[0] = LCDstart;
  1112  000640  C0D0  F0D8         	movff	WriteLCD@LCDstart,_Msg3
  1113                           
  1114                           ;user.c: 272: while (ii<dispLength)
  1115  000644  D104               	goto	l2661
  1116  000646                     l2631:
  1117                           
  1118                           ; BSR set to: 1
  1119                           ;user.c: 273: {
  1120                           ;user.c: 274: if (var >= 10)
  1121  000646  C0D4  F09F         	movff	WriteLCD@var,___ftge@ff1
  1122  00064A  C0D5  F0A0         	movff	WriteLCD@var+1,___ftge@ff1+1
  1123  00064E  C0D6  F0A1         	movff	WriteLCD@var+2,___ftge@ff1+2
  1124  000652  0E00               	movlw	0
  1125  000654  0100               	movlb	0	; () banked
  1126  000656  6FA2               	movwf	___ftge@ff2& (0+255),b
  1127  000658  0E20               	movlw	32
  1128  00065A  0100               	movlb	0	; () banked
  1129  00065C  6FA3               	movwf	(___ftge@ff2+1)& (0+255),b
  1130  00065E  0E41               	movlw	65
  1131  000660  0100               	movlb	0	; () banked
  1132  000662  6FA4               	movwf	(___ftge@ff2+2)& (0+255),b
  1133  000664  EC2C  F00B         	call	___ftge	;wreg free
  1134  000668  A0D8               	btfss	status,0,c
  1135  00066A  D018               	goto	l2635
  1136                           
  1137                           ;user.c: 275: {
  1138                           ;user.c: 276: var = var/10.0;
  1139  00066C  C0D4  F0A7         	movff	WriteLCD@var,___ftdiv@f1
  1140  000670  C0D5  F0A8         	movff	WriteLCD@var+1,___ftdiv@f1+1
  1141  000674  C0D6  F0A9         	movff	WriteLCD@var+2,___ftdiv@f1+2
  1142  000678  0E00               	movlw	0
  1143  00067A  0100               	movlb	0	; () banked
  1144  00067C  6FAA               	movwf	___ftdiv@f2& (0+255),b
  1145  00067E  0E20               	movlw	32
  1146  000680  0100               	movlb	0	; () banked
  1147  000682  6FAB               	movwf	(___ftdiv@f2+1)& (0+255),b
  1148  000684  0E41               	movlw	65
  1149  000686  0100               	movlb	0	; () banked
  1150  000688  6FAC               	movwf	(___ftdiv@f2+2)& (0+255),b
  1151  00068A  ECF0  F008         	call	___ftdiv	;wreg free
  1152  00068E  C0A7  F0D4         	movff	?___ftdiv,WriteLCD@var
  1153  000692  C0A8  F0D5         	movff	?___ftdiv+1,WriteLCD@var+1
  1154  000696  C0A9  F0D6         	movff	?___ftdiv+2,WriteLCD@var+2
  1155                           
  1156                           ;user.c: 277: }
  1157  00069A  D0D9               	goto	l2661
  1158  00069C                     l2635:
  1159                           
  1160                           ;user.c: 278: else if ( (var < 10) && (var >= 1) )
  1161  00069C  C0D4  F09F         	movff	WriteLCD@var,___ftge@ff1
  1162  0006A0  C0D5  F0A0         	movff	WriteLCD@var+1,___ftge@ff1+1
  1163  0006A4  C0D6  F0A1         	movff	WriteLCD@var+2,___ftge@ff1+2
  1164  0006A8  0E00               	movlw	0
  1165  0006AA  0100               	movlb	0	; () banked
  1166  0006AC  6FA2               	movwf	___ftge@ff2& (0+255),b
  1167  0006AE  0E20               	movlw	32
  1168  0006B0  0100               	movlb	0	; () banked
  1169  0006B2  6FA3               	movwf	(___ftge@ff2+1)& (0+255),b
  1170  0006B4  0E41               	movlw	65
  1171  0006B6  0100               	movlb	0	; () banked
  1172  0006B8  6FA4               	movwf	(___ftge@ff2+2)& (0+255),b
  1173  0006BA  EC2C  F00B         	call	___ftge	;wreg free
  1174  0006BE  B0D8               	btfsc	status,0,c
  1175  0006C0  D075               	goto	l2645
  1176  0006C2  C0D4  F09F         	movff	WriteLCD@var,___ftge@ff1
  1177  0006C6  C0D5  F0A0         	movff	WriteLCD@var+1,___ftge@ff1+1
  1178  0006CA  C0D6  F0A1         	movff	WriteLCD@var+2,___ftge@ff1+2
  1179  0006CE  0E00               	movlw	0
  1180  0006D0  0100               	movlb	0	; () banked
  1181  0006D2  6FA2               	movwf	___ftge@ff2& (0+255),b
  1182  0006D4  0E80               	movlw	128
  1183  0006D6  0100               	movlb	0	; () banked
  1184  0006D8  6FA3               	movwf	(___ftge@ff2+1)& (0+255),b
  1185  0006DA  0E3F               	movlw	63
  1186  0006DC  0100               	movlb	0	; () banked
  1187  0006DE  6FA4               	movwf	(___ftge@ff2+2)& (0+255),b
  1188  0006E0  EC2C  F00B         	call	___ftge	;wreg free
  1189  0006E4  A0D8               	btfss	status,0,c
  1190  0006E6  D062               	goto	l2645
  1191                           
  1192                           ;user.c: 279: {
  1193                           ;user.c: 280: Msg3[ii] = (int)var + 0x30;
  1194  0006E8  0100               	movlb	0	; () banked
  1195  0006EA  0ED8               	movlw	low _Msg3
  1196  0006EC  0101               	movlb	1	; () banked
  1197  0006EE  2506               	addwf	WriteLCD@ii& (0+255),w,b
  1198  0006F0  6ED9               	movwf	fsr2l,c
  1199  0006F2  0100               	movlb	0	; () banked
  1200  0006F4  0E00               	movlw	high _Msg3
  1201  0006F6  0101               	movlb	1	; () banked
  1202  0006F8  2107               	addwfc	(WriteLCD@ii+1)& (0+255),w,b
  1203  0006FA  6EDA               	movwf	fsr2h,c
  1204  0006FC  C0D4  F09F         	movff	WriteLCD@var,___fttol@f1
  1205  000700  C0D5  F0A0         	movff	WriteLCD@var+1,___fttol@f1+1
  1206  000704  C0D6  F0A1         	movff	WriteLCD@var+2,___fttol@f1+2
  1207  000708  EC49  F008         	call	___fttol	;wreg free
  1208  00070C  C09F  F100         	movff	?___fttol,??_WriteLCD
  1209  000710  C0A0  F101         	movff	?___fttol+1,??_WriteLCD+1
  1210  000714  C0A1  F102         	movff	?___fttol+2,??_WriteLCD+2
  1211  000718  C0A2  F103         	movff	?___fttol+3,??_WriteLCD+3
  1212  00071C  0101               	movlb	1	; () banked
  1213  00071E  5100               	movf	??_WriteLCD& (0+255),w,b
  1214  000720  0F30               	addlw	48
  1215  000722  6EDF               	movwf	indf2,c
  1216                           
  1217                           ; BSR set to: 1
  1218                           ;user.c: 281: var = (var - (int)var)*10.0;
  1219  000724  C0D4  F0B8         	movff	WriteLCD@var,___ftadd@f2
  1220  000728  C0D5  F0B9         	movff	WriteLCD@var+1,___ftadd@f2+1
  1221  00072C  C0D6  F0BA         	movff	WriteLCD@var+2,___ftadd@f2+2
  1222  000730  C0D4  F09F         	movff	WriteLCD@var,___fttol@f1
  1223  000734  C0D5  F0A0         	movff	WriteLCD@var+1,___fttol@f1+1
  1224  000738  C0D6  F0A1         	movff	WriteLCD@var+2,___fttol@f1+2
  1225  00073C  EC49  F008         	call	___fttol	;wreg free
  1226  000740  C09F  F100         	movff	?___fttol,??_WriteLCD
  1227  000744  C0A0  F101         	movff	?___fttol+1,??_WriteLCD+1
  1228  000748  C0A1  F102         	movff	?___fttol+2,??_WriteLCD+2
  1229  00074C  C0A2  F103         	movff	?___fttol+3,??_WriteLCD+3
  1230  000750  C100  F0AE         	movff	??_WriteLCD,___awtoft@c
  1231  000754  C101  F0AF         	movff	??_WriteLCD+1,___awtoft@c+1
  1232  000758  EC79  F00C         	call	___awtoft	;wreg free
  1233  00075C  C0AE  F0B2         	movff	?___awtoft,___ftneg@f1
  1234  000760  C0AF  F0B3         	movff	?___awtoft+1,___ftneg@f1+1
  1235  000764  C0B0  F0B4         	movff	?___awtoft+2,___ftneg@f1+2
  1236  000768  EC70  F00D         	call	___ftneg	;wreg free
  1237  00076C  C0B2  F0B5         	movff	?___ftneg,___ftadd@f1
  1238  000770  C0B3  F0B6         	movff	?___ftneg+1,___ftadd@f1+1
  1239  000774  C0B4  F0B7         	movff	?___ftneg+2,___ftadd@f1+2
  1240  000778  EC55  F004         	call	___ftadd	;wreg free
  1241  00077C  C0B5  F0C1         	movff	?___ftadd,___ftmul@f1
  1242  000780  C0B6  F0C2         	movff	?___ftadd+1,___ftmul@f1+1
  1243  000784  C0B7  F0C3         	movff	?___ftadd+2,___ftmul@f1+2
  1244  000788  0E00               	movlw	0
  1245  00078A  0100               	movlb	0	; () banked
  1246  00078C  6FC4               	movwf	___ftmul@f2& (0+255),b
  1247  00078E  0E20               	movlw	32
  1248  000790  0100               	movlb	0	; () banked
  1249  000792  6FC5               	movwf	(___ftmul@f2+1)& (0+255),b
  1250  000794  0E41               	movlw	65
  1251  000796  0100               	movlb	0	; () banked
  1252  000798  6FC6               	movwf	(___ftmul@f2+2)& (0+255),b
  1253  00079A  EC95  F007         	call	___ftmul	;wreg free
  1254  00079E  C0C1  F0D4         	movff	?___ftmul,WriteLCD@var
  1255  0007A2  C0C2  F0D5         	movff	?___ftmul+1,WriteLCD@var+1
  1256  0007A6  C0C3  F0D6         	movff	?___ftmul+2,WriteLCD@var+2
  1257  0007AA  D04E               	goto	L2
  1258  0007AC                     l2645:
  1259                           
  1260                           ;user.c: 284: else if ( var < 1)
  1261  0007AC  C0D4  F09F         	movff	WriteLCD@var,___ftge@ff1
  1262  0007B0  C0D5  F0A0         	movff	WriteLCD@var+1,___ftge@ff1+1
  1263  0007B4  C0D6  F0A1         	movff	WriteLCD@var+2,___ftge@ff1+2
  1264  0007B8  0E00               	movlw	0
  1265  0007BA  0100               	movlb	0	; () banked
  1266  0007BC  6FA2               	movwf	___ftge@ff2& (0+255),b
  1267  0007BE  0E80               	movlw	128
  1268  0007C0  0100               	movlb	0	; () banked
  1269  0007C2  6FA3               	movwf	(___ftge@ff2+1)& (0+255),b
  1270  0007C4  0E3F               	movlw	63
  1271  0007C6  0100               	movlb	0	; () banked
  1272  0007C8  6FA4               	movwf	(___ftge@ff2+2)& (0+255),b
  1273  0007CA  EC2C  F00B         	call	___ftge	;wreg free
  1274  0007CE  B0D8               	btfsc	status,0,c
  1275  0007D0  D03E               	goto	l2661
  1276                           
  1277                           ;user.c: 285: {
  1278                           ;user.c: 286: var = var*10.0;
  1279  0007D2  C0D4  F0C1         	movff	WriteLCD@var,___ftmul@f1
  1280  0007D6  C0D5  F0C2         	movff	WriteLCD@var+1,___ftmul@f1+1
  1281  0007DA  C0D6  F0C3         	movff	WriteLCD@var+2,___ftmul@f1+2
  1282  0007DE  0E00               	movlw	0
  1283  0007E0  0100               	movlb	0	; () banked
  1284  0007E2  6FC4               	movwf	___ftmul@f2& (0+255),b
  1285  0007E4  0E20               	movlw	32
  1286  0007E6  0100               	movlb	0	; () banked
  1287  0007E8  6FC5               	movwf	(___ftmul@f2+1)& (0+255),b
  1288  0007EA  0E41               	movlw	65
  1289  0007EC  0100               	movlb	0	; () banked
  1290  0007EE  6FC6               	movwf	(___ftmul@f2+2)& (0+255),b
  1291  0007F0  EC95  F007         	call	___ftmul	;wreg free
  1292  0007F4  C0C1  F0D4         	movff	?___ftmul,WriteLCD@var
  1293  0007F8  C0C2  F0D5         	movff	?___ftmul+1,WriteLCD@var+1
  1294  0007FC  C0C3  F0D6         	movff	?___ftmul+2,WriteLCD@var+2
  1295                           
  1296                           ;user.c: 287: if (firstDec == 0)
  1297  000800  0101               	movlb	1	; () banked
  1298  000802  5105               	movf	(WriteLCD@firstDec+1)& (0+255),w,b
  1299  000804  1104               	iorwf	WriteLCD@firstDec& (0+255),w,b
  1300  000806  A4D8               	btfss	status,2,c
  1301  000808  D013               	goto	l2657
  1302                           
  1303                           ; BSR set to: 1
  1304                           ;user.c: 288: {
  1305                           ;user.c: 289: Msg3[ii] = '.';
  1306  00080A  0100               	movlb	0	; () banked
  1307  00080C  0ED8               	movlw	low _Msg3
  1308  00080E  0101               	movlb	1	; () banked
  1309  000810  2506               	addwf	WriteLCD@ii& (0+255),w,b
  1310  000812  6ED9               	movwf	fsr2l,c
  1311  000814  0100               	movlb	0	; () banked
  1312  000816  0E00               	movlw	high _Msg3
  1313  000818  0101               	movlb	1	; () banked
  1314  00081A  2107               	addwfc	(WriteLCD@ii+1)& (0+255),w,b
  1315  00081C  6EDA               	movwf	fsr2h,c
  1316  00081E  0E2E               	movlw	46
  1317  000820  6EDF               	movwf	indf2,c
  1318                           
  1319                           ; BSR set to: 1
  1320                           ;user.c: 290: firstDec = 1;
  1321  000822  0E00               	movlw	0
  1322  000824  0101               	movlb	1	; () banked
  1323  000826  6F05               	movwf	(WriteLCD@firstDec+1)& (0+255),b
  1324  000828  0E01               	movlw	1
  1325  00082A  0101               	movlb	1	; () banked
  1326  00082C  6F04               	movwf	WriteLCD@firstDec& (0+255),b
  1327  00082E  D00C               	goto	L2
  1328  000830                     l2657:
  1329                           
  1330                           ; BSR set to: 1
  1331                           ;user.c: 293: else
  1332                           ;user.c: 294: {
  1333                           ;user.c: 295: Msg3[ii] = '0';
  1334  000830  0100               	movlb	0	; () banked
  1335  000832  0ED8               	movlw	low _Msg3
  1336  000834  0101               	movlb	1	; () banked
  1337  000836  2506               	addwf	WriteLCD@ii& (0+255),w,b
  1338  000838  6ED9               	movwf	fsr2l,c
  1339  00083A  0100               	movlb	0	; () banked
  1340  00083C  0E00               	movlw	high _Msg3
  1341  00083E  0101               	movlb	1	; () banked
  1342  000840  2107               	addwfc	(WriteLCD@ii+1)& (0+255),w,b
  1343  000842  6EDA               	movwf	fsr2h,c
  1344  000844  0E30               	movlw	48
  1345  000846  6EDF               	movwf	indf2,c
  1346  000848                     L2:
  1347                           
  1348                           ; BSR set to: 1
  1349                           ;user.c: 296: ii++;
  1350  000848  0101               	movlb	1	; () banked
  1351  00084A  4B06               	infsnz	WriteLCD@ii& (0+255),f,b
  1352  00084C  2B07               	incf	(WriteLCD@ii+1)& (0+255),f,b
  1353  00084E                     l2661:
  1354  00084E  0101               	movlb	1	; () banked
  1355  000850  5107               	movf	(WriteLCD@ii+1)& (0+255),w,b
  1356  000852  0A80               	xorlw	128
  1357  000854  0101               	movlb	1	; () banked
  1358  000856  6F00               	movwf	??_WriteLCD& (0+255),b
  1359  000858  0100               	movlb	0	; () banked
  1360  00085A  51D2               	movf	WriteLCD@dispLength& (0+255),w,b
  1361  00085C  0101               	movlb	1	; () banked
  1362  00085E  5D06               	subwf	WriteLCD@ii& (0+255),w,b
  1363  000860  0100               	movlb	0	; () banked
  1364  000862  51D3               	movf	(WriteLCD@dispLength+1)& (0+255),w,b
  1365  000864  0A80               	xorlw	128
  1366  000866  0101               	movlb	1	; () banked
  1367  000868  5900               	subwfb	??_WriteLCD& (0+255),w,b
  1368  00086A  A0D8               	btfss	status,0,c
  1369  00086C  D6EC               	goto	l2631
  1370                           
  1371                           ; BSR set to: 1
  1372                           ;user.c: 297: }
  1373                           ;user.c: 298: }
  1374                           ;user.c: 299: }
  1375                           ;user.c: 300: Msg3[dispLength] = '\0';
  1376                           
  1377                           ; BSR set to: 1
  1378  00086E  0100               	movlb	0	; () banked
  1379  000870  0ED8               	movlw	low _Msg3
  1380  000872  0100               	movlb	0	; () banked
  1381  000874  25D2               	addwf	WriteLCD@dispLength& (0+255),w,b
  1382  000876  6ED9               	movwf	fsr2l,c
  1383  000878  0100               	movlb	0	; () banked
  1384  00087A  0E00               	movlw	high _Msg3
  1385  00087C  0100               	movlb	0	; () banked
  1386  00087E  21D3               	addwfc	(WriteLCD@dispLength+1)& (0+255),w,b
  1387  000880  6EDA               	movwf	fsr2h,c
  1388  000882  0E00               	movlw	0
  1389  000884  6EDF               	movwf	indf2,c
  1390                           
  1391                           ; BSR set to: 0
  1392                           ;user.c: 301: DisplayLCD(Msg3,0);
  1393  000886  0100               	movlb	0	; () banked
  1394  000888  0E00               	movlw	high _Msg3
  1395  00088A  0100               	movlb	0	; () banked
  1396  00088C  6FA1               	movwf	(DisplayLCD@tempPtr+1)& (0+255),b
  1397  00088E  0100               	movlb	0	; () banked
  1398  000890  0ED8               	movlw	low _Msg3
  1399  000892  0100               	movlb	0	; () banked
  1400  000894  6FA0               	movwf	DisplayLCD@tempPtr& (0+255),b
  1401  000896  0E00               	movlw	0
  1402  000898  0100               	movlb	0	; () banked
  1403  00089A  6FA3               	movwf	(DisplayLCD@init+1)& (0+255),b
  1404  00089C  0E00               	movlw	0
  1405  00089E  0100               	movlb	0	; () banked
  1406  0008A0  6FA2               	movwf	DisplayLCD@init& (0+255),b
  1407  0008A2  ECEE  F00B         	call	_DisplayLCD	;wreg free
  1408  0008A6  0012               	return	
  1409  0008A8  FFFF               	dw	65535	; errata NOP
  1410  0008AA                     __end_of_WriteLCD:
  1411                           	opt stack 0
  1412                           tblptru	equ	0xFF8
  1413                           tblptrh	equ	0xFF7
  1414                           tblptrl	equ	0xFF6
  1415                           tablat	equ	0xFF5
  1416                           postinc0	equ	0xFEE
  1417                           wreg	equ	0xFE8
  1418                           postinc1	equ	0xFE6
  1419                           postdec1	equ	0xFE5
  1420                           fsr1l	equ	0xFE1
  1421                           indf2	equ	0xFDF
  1422                           postinc2	equ	0xFDE
  1423                           fsr2h	equ	0xFDA
  1424                           fsr2l	equ	0xFD9
  1425                           status	equ	0xFD8
  1426                           
  1427 ;; *************** function ___fttol *****************
  1428 ;; Defined at:
  1429 ;;		line 44 in file "/Applications/microchip/xc8/v1.33/sources/common/fttol.c"
  1430 ;; Parameters:    Size  Location     Type
  1431 ;;  f1              3   31[BANK0 ] float 
  1432 ;; Auto vars:     Size  Location     Type
  1433 ;;  lval            4   41[BANK0 ] unsigned long 
  1434 ;;  exp1            1   45[BANK0 ] unsigned char 
  1435 ;;  sign1           1   40[BANK0 ] unsigned char 
  1436 ;; Return value:  Size  Location     Type
  1437 ;;                  4   31[BANK0 ] long 
  1438 ;; Registers used:
  1439 ;;		wreg, status,2, status,0
  1440 ;; Tracked objects:
  1441 ;;		On entry : 0/0
  1442 ;;		On exit  : 0/0
  1443 ;;		Unchanged: 0/0
  1444 ;; Data sizes:     COMRAM   BANK0   BANK1   BANK2   BANK3   BANK4   BANK5
  1445 ;;      Params:         0       4       0       0       0       0       0
  1446 ;;      Locals:         0       6       0       0       0       0       0
  1447 ;;      Temps:          0       5       0       0       0       0       0
  1448 ;;      Totals:         0      15       0       0       0       0       0
  1449 ;;Total ram usage:       15 bytes
  1450 ;; Hardware stack levels used:    1
  1451 ;; Hardware stack levels required when called:    6
  1452 ;; This function calls:
  1453 ;;		Nothing
  1454 ;; This function is called by:
  1455 ;;		_WriteLCD
  1456 ;; This function uses a non-reentrant model
  1457 ;;
  1458                           
  1459                           	psect	text3
  1460  001092                     __ptext3:
  1461                           	opt stack 0
  1462  001092                     ___fttol:
  1463                           	opt stack 23
  1464                           
  1465                           ;incstack = 0
  1466  001092  FFFF               	dw	65535
  1467  001094  0100               	movlb	0	; () banked
  1468  001096  C0A1  F0A3         	movff	___fttol@f1+2,??___fttol
  1469  00109A  0100               	movlb	0	; () banked
  1470  00109C  6BA4               	clrf	(??___fttol+1)& (0+255),b
  1471  00109E  6BA5               	clrf	(??___fttol+2)& (0+255),b
  1472  0010A0  0100               	movlb	0	; () banked
  1473  0010A2  35A0               	rlcf	(___fttol@f1+1)& (0+255),w,b
  1474  0010A4  0100               	movlb	0	; () banked
  1475  0010A6  37A3               	rlcf	??___fttol& (0+255),f,b
  1476  0010A8  E301               	bnc	u2771
  1477  0010AA  81A4               	bsf	(??___fttol+1)& (0+255),0,b
  1478  0010AC                     u2771:
  1479  0010AC  0100               	movlb	0	; () banked
  1480  0010AE  51A3               	movf	??___fttol& (0+255),w,b
  1481  0010B0  0100               	movlb	0	; () banked
  1482  0010B2  6FAD               	movwf	___fttol@exp1& (0+255),b
  1483  0010B4  0100               	movlb	0	; () banked
  1484  0010B6  67AD               	tstfsz	___fttol@exp1& (0+255),b
  1485  0010B8  D001               	goto	l2557
  1486  0010BA  D059               	goto	u2820
  1487  0010BC                     l2557:
  1488                           
  1489                           ; BSR set to: 0
  1490  0010BC  0E17               	movlw	23
  1491  0010BE  0100               	movlb	0	; () banked
  1492  0010C0  6FA3               	movwf	??___fttol& (0+255),b
  1493  0010C2  0100               	movlb	0	; () banked
  1494  0010C4  C09F  F0A4         	movff	___fttol@f1,??___fttol+1
  1495  0010C8  0100               	movlb	0	; () banked
  1496  0010CA  C0A0  F0A5         	movff	___fttol@f1+1,??___fttol+2
  1497  0010CE  0100               	movlb	0	; () banked
  1498  0010D0  C0A1  F0A6         	movff	___fttol@f1+2,??___fttol+3
  1499  0010D4  0100               	movlb	0	; () banked
  1500  0010D6  29A3               	incf	??___fttol& (0+255),w,b
  1501  0010D8  0100               	movlb	0	; () banked
  1502  0010DA  6FA7               	movwf	(??___fttol+4)& (0+255),b
  1503  0010DC  D005               	goto	u2790
  1504  0010DE                     u2795:
  1505  0010DE  0100               	movlb	0	; () banked
  1506  0010E0  90D8               	bcf	status,0,c
  1507  0010E2  33A6               	rrcf	(??___fttol+3)& (0+255),f,b
  1508  0010E4  33A5               	rrcf	(??___fttol+2)& (0+255),f,b
  1509  0010E6  33A4               	rrcf	(??___fttol+1)& (0+255),f,b
  1510  0010E8                     u2790:
  1511  0010E8  0100               	movlb	0	; () banked
  1512  0010EA  2FA7               	decfsz	(??___fttol+4)& (0+255),f,b
  1513  0010EC  D7F8               	goto	u2795
  1514  0010EE  0100               	movlb	0	; () banked
  1515  0010F0  51A4               	movf	(??___fttol+1)& (0+255),w,b
  1516  0010F2  0100               	movlb	0	; () banked
  1517  0010F4  6FA8               	movwf	___fttol@sign1& (0+255),b
  1518                           
  1519                           ; BSR set to: 0
  1520  0010F6  0100               	movlb	0	; () banked
  1521  0010F8  8FA0               	bsf	(___fttol@f1+1)& (0+255),7,b
  1522                           
  1523                           ; BSR set to: 0
  1524  0010FA  0EFF               	movlw	255
  1525  0010FC  0100               	movlb	0	; () banked
  1526  0010FE  179F               	andwf	___fttol@f1& (0+255),f,b
  1527  001100  0EFF               	movlw	255
  1528  001102  0100               	movlb	0	; () banked
  1529  001104  17A0               	andwf	(___fttol@f1+1)& (0+255),f,b
  1530  001106  0E00               	movlw	0
  1531  001108  0100               	movlb	0	; () banked
  1532  00110A  17A1               	andwf	(___fttol@f1+2)& (0+255),f,b
  1533                           
  1534                           ; BSR set to: 0
  1535  00110C  0100               	movlb	0	; () banked
  1536  00110E  519F               	movf	___fttol@f1& (0+255),w,b
  1537  001110  0100               	movlb	0	; () banked
  1538  001112  6FA9               	movwf	___fttol@lval& (0+255),b
  1539  001114  0100               	movlb	0	; () banked
  1540  001116  51A0               	movf	(___fttol@f1+1)& (0+255),w,b
  1541  001118  0100               	movlb	0	; () banked
  1542  00111A  6FAA               	movwf	(___fttol@lval+1)& (0+255),b
  1543  00111C  0100               	movlb	0	; () banked
  1544  00111E  51A1               	movf	(___fttol@f1+2)& (0+255),w,b
  1545  001120  0100               	movlb	0	; () banked
  1546  001122  6FAB               	movwf	(___fttol@lval+2)& (0+255),b
  1547  001124  0100               	movlb	0	; () banked
  1548  001126  6BAC               	clrf	(___fttol@lval+3)& (0+255),b
  1549                           
  1550                           ; BSR set to: 0
  1551  001128  0E8E               	movlw	142
  1552  00112A  0100               	movlb	0	; () banked
  1553  00112C  5FAD               	subwf	___fttol@exp1& (0+255),f,b
  1554                           
  1555                           ; BSR set to: 0
  1556  00112E  0100               	movlb	0	; () banked
  1557  001130  AFAD               	btfss	___fttol@exp1& (0+255),7,b
  1558  001132  D019               	goto	l2579
  1559                           
  1560                           ; BSR set to: 0
  1561  001134  0100               	movlb	0	; () banked
  1562  001136  51AD               	movf	___fttol@exp1& (0+255),w,b
  1563  001138  0A80               	xorlw	128
  1564  00113A  0100               	movlb	0	; () banked
  1565  00113C  6FA3               	movwf	??___fttol& (0+255),b
  1566  00113E  0EF1               	movlw	241
  1567  001140  0A80               	xorlw	128
  1568  001142  0100               	movlb	0	; () banked
  1569  001144  5DA3               	subwf	??___fttol& (0+255),w,b
  1570  001146  A0D8               	btfss	status,0,c
  1571  001148  D012               	goto	u2820
  1572  00114A                     l2575:
  1573                           
  1574                           ; BSR set to: 0
  1575  00114A  0100               	movlb	0	; () banked
  1576  00114C  90D8               	bcf	status,0,c
  1577  00114E  0100               	movlb	0	; () banked
  1578  001150  33AC               	rrcf	(___fttol@lval+3)& (0+255),f,b
  1579  001152  0100               	movlb	0	; () banked
  1580  001154  33AB               	rrcf	(___fttol@lval+2)& (0+255),f,b
  1581  001156  0100               	movlb	0	; () banked
  1582  001158  33AA               	rrcf	(___fttol@lval+1)& (0+255),f,b
  1583  00115A  0100               	movlb	0	; () banked
  1584  00115C  33A9               	rrcf	___fttol@lval& (0+255),f,b
  1585                           
  1586                           ; BSR set to: 0
  1587  00115E  0100               	movlb	0	; () banked
  1588  001160  3FAD               	incfsz	___fttol@exp1& (0+255),f,b
  1589  001162  D7F3               	goto	l2575
  1590  001164  D020               	goto	l2589
  1591  001166                     l2579:
  1592                           
  1593                           ; BSR set to: 0
  1594  001166  0E17               	movlw	23
  1595  001168  0100               	movlb	0	; () banked
  1596  00116A  65AD               	cpfsgt	___fttol@exp1& (0+255),b
  1597  00116C  D019               	goto	l2587
  1598  00116E                     u2820:
  1599                           
  1600                           ; BSR set to: 0
  1601  00116E  0E00               	movlw	0
  1602  001170  0100               	movlb	0	; () banked
  1603  001172  6F9F               	movwf	?___fttol& (0+255),b
  1604  001174  0E00               	movlw	0
  1605  001176  0100               	movlb	0	; () banked
  1606  001178  6FA0               	movwf	(?___fttol+1)& (0+255),b
  1607  00117A  0E00               	movlw	0
  1608  00117C  0100               	movlb	0	; () banked
  1609  00117E  6FA1               	movwf	(?___fttol+2)& (0+255),b
  1610  001180  0E00               	movlw	0
  1611  001182  0100               	movlb	0	; () banked
  1612  001184  6FA2               	movwf	(?___fttol+3)& (0+255),b
  1613  001186  D02A               	goto	l642
  1614  001188                     l2585:
  1615                           
  1616                           ; BSR set to: 0
  1617  001188  0100               	movlb	0	; () banked
  1618  00118A  90D8               	bcf	status,0,c
  1619  00118C  0100               	movlb	0	; () banked
  1620  00118E  37A9               	rlcf	___fttol@lval& (0+255),f,b
  1621  001190  0100               	movlb	0	; () banked
  1622  001192  37AA               	rlcf	(___fttol@lval+1)& (0+255),f,b
  1623  001194  0100               	movlb	0	; () banked
  1624  001196  37AB               	rlcf	(___fttol@lval+2)& (0+255),f,b
  1625  001198  0100               	movlb	0	; () banked
  1626  00119A  37AC               	rlcf	(___fttol@lval+3)& (0+255),f,b
  1627  00119C  0100               	movlb	0	; () banked
  1628  00119E  07AD               	decf	___fttol@exp1& (0+255),f,b
  1629  0011A0                     l2587:
  1630                           
  1631                           ; BSR set to: 0
  1632  0011A0  0100               	movlb	0	; () banked
  1633  0011A2  67AD               	tstfsz	___fttol@exp1& (0+255),b
  1634  0011A4  D7F1               	goto	l2585
  1635  0011A6                     l2589:
  1636                           
  1637                           ; BSR set to: 0
  1638  0011A6  0100               	movlb	0	; () banked
  1639  0011A8  51A8               	movf	___fttol@sign1& (0+255),w,b
  1640  0011AA  B4D8               	btfsc	status,2,c
  1641  0011AC  D00F               	goto	l2593
  1642                           
  1643                           ; BSR set to: 0
  1644  0011AE  0100               	movlb	0	; () banked
  1645  0011B0  1FAC               	comf	(___fttol@lval+3)& (0+255),f,b
  1646  0011B2  0100               	movlb	0	; () banked
  1647  0011B4  1FAB               	comf	(___fttol@lval+2)& (0+255),f,b
  1648  0011B6  0100               	movlb	0	; () banked
  1649  0011B8  1FAA               	comf	(___fttol@lval+1)& (0+255),f,b
  1650  0011BA  0100               	movlb	0	; () banked
  1651  0011BC  6DA9               	negf	___fttol@lval& (0+255),b
  1652  0011BE  0E00               	movlw	0
  1653  0011C0  0100               	movlb	0	; () banked
  1654  0011C2  23AA               	addwfc	(___fttol@lval+1)& (0+255),f,b
  1655  0011C4  0100               	movlb	0	; () banked
  1656  0011C6  23AB               	addwfc	(___fttol@lval+2)& (0+255),f,b
  1657  0011C8  0100               	movlb	0	; () banked
  1658  0011CA  23AC               	addwfc	(___fttol@lval+3)& (0+255),f,b
  1659  0011CC                     l2593:
  1660                           
  1661                           ; BSR set to: 0
  1662  0011CC  C0A9  F09F         	movff	___fttol@lval,?___fttol
  1663  0011D0  C0AA  F0A0         	movff	___fttol@lval+1,?___fttol+1
  1664  0011D4  C0AB  F0A1         	movff	___fttol@lval+2,?___fttol+2
  1665  0011D8  C0AC  F0A2         	movff	___fttol@lval+3,?___fttol+3
  1666  0011DC                     l642:
  1667                           
  1668                           ; BSR set to: 0
  1669  0011DC  0012               	return	
  1670  0011DE  FFFF               	dw	65535	; errata NOP
  1671  0011E0                     __end_of___fttol:
  1672                           	opt stack 0
  1673                           tblptru	equ	0xFF8
  1674                           tblptrh	equ	0xFF7
  1675                           tblptrl	equ	0xFF6
  1676                           tablat	equ	0xFF5
  1677                           postinc0	equ	0xFEE
  1678                           wreg	equ	0xFE8
  1679                           postinc1	equ	0xFE6
  1680                           postdec1	equ	0xFE5
  1681                           fsr1l	equ	0xFE1
  1682                           indf2	equ	0xFDF
  1683                           postinc2	equ	0xFDE
  1684                           fsr2h	equ	0xFDA
  1685                           fsr2l	equ	0xFD9
  1686                           status	equ	0xFD8
  1687                           
  1688 ;; *************** function ___ftneg *****************
  1689 ;; Defined at:
  1690 ;;		line 15 in file "/Applications/microchip/xc8/v1.33/sources/common/ftneg.c"
  1691 ;; Parameters:    Size  Location     Type
  1692 ;;  f1              3   50[BANK0 ] float 
  1693 ;; Auto vars:     Size  Location     Type
  1694 ;;		None
  1695 ;; Return value:  Size  Location     Type
  1696 ;;                  3   50[BANK0 ] float 
  1697 ;; Registers used:
  1698 ;;		wreg, status,2, status,0
  1699 ;; Tracked objects:
  1700 ;;		On entry : 0/0
  1701 ;;		On exit  : 0/0
  1702 ;;		Unchanged: 0/0
  1703 ;; Data sizes:     COMRAM   BANK0   BANK1   BANK2   BANK3   BANK4   BANK5
  1704 ;;      Params:         0       3       0       0       0       0       0
  1705 ;;      Locals:         0       0       0       0       0       0       0
  1706 ;;      Temps:          0       0       0       0       0       0       0
  1707 ;;      Totals:         0       3       0       0       0       0       0
  1708 ;;Total ram usage:        3 bytes
  1709 ;; Hardware stack levels used:    1
  1710 ;; Hardware stack levels required when called:    6
  1711 ;; This function calls:
  1712 ;;		Nothing
  1713 ;; This function is called by:
  1714 ;;		_WriteLCD
  1715 ;; This function uses a non-reentrant model
  1716 ;;
  1717                           
  1718                           	psect	text4
  1719  001AE0                     __ptext4:
  1720                           	opt stack 0
  1721  001AE0                     ___ftneg:
  1722                           	opt stack 23
  1723                           
  1724                           ; BSR set to: 0
  1725                           ;incstack = 0
  1726  001AE0  FFFF               	dw	65535
  1727  001AE2  0E7F               	movlw	127
  1728  001AE4  0100               	movlb	0	; () banked
  1729  001AE6  15B4               	andwf	(___ftneg@f1+2)& (0+255),w,b
  1730  001AE8  0100               	movlb	0	; () banked
  1731  001AEA  11B3               	iorwf	(___ftneg@f1+1)& (0+255),w,b
  1732  001AEC  0100               	movlb	0	; () banked
  1733  001AEE  11B2               	iorwf	___ftneg@f1& (0+255),w,b
  1734  001AF0  B4D8               	btfsc	status,2,c
  1735  001AF2  D009               	goto	l632
  1736                           
  1737                           ; BSR set to: 0
  1738  001AF4  0E00               	movlw	0
  1739  001AF6  0100               	movlb	0	; () banked
  1740  001AF8  1BB2               	xorwf	___ftneg@f1& (0+255),f,b
  1741  001AFA  0E00               	movlw	0
  1742  001AFC  0100               	movlb	0	; () banked
  1743  001AFE  1BB3               	xorwf	(___ftneg@f1+1)& (0+255),f,b
  1744  001B00  0E80               	movlw	128
  1745  001B02  0100               	movlb	0	; () banked
  1746  001B04  1BB4               	xorwf	(___ftneg@f1+2)& (0+255),f,b
  1747  001B06                     l632:
  1748                           
  1749                           ; BSR set to: 0
  1750  001B06  C0B2  F0B2         	movff	___ftneg@f1,?___ftneg
  1751  001B0A  C0B3  F0B3         	movff	___ftneg@f1+1,?___ftneg+1
  1752  001B0E  C0B4  F0B4         	movff	___ftneg@f1+2,?___ftneg+2
  1753                           
  1754                           ; BSR set to: 0
  1755  001B12  0012               	return	
  1756  001B14  FFFF               	dw	65535	; errata NOP
  1757  001B16                     __end_of___ftneg:
  1758                           	opt stack 0
  1759                           tblptru	equ	0xFF8
  1760                           tblptrh	equ	0xFF7
  1761                           tblptrl	equ	0xFF6
  1762                           tablat	equ	0xFF5
  1763                           postinc0	equ	0xFEE
  1764                           wreg	equ	0xFE8
  1765                           postinc1	equ	0xFE6
  1766                           postdec1	equ	0xFE5
  1767                           fsr1l	equ	0xFE1
  1768                           indf2	equ	0xFDF
  1769                           postinc2	equ	0xFDE
  1770                           fsr2h	equ	0xFDA
  1771                           fsr2l	equ	0xFD9
  1772                           status	equ	0xFD8
  1773                           
  1774 ;; *************** function ___ftmul *****************
  1775 ;; Defined at:
  1776 ;;		line 62 in file "/Applications/microchip/xc8/v1.33/sources/common/ftmul.c"
  1777 ;; Parameters:    Size  Location     Type
  1778 ;;  f1              3   65[BANK0 ] float 
  1779 ;;  f2              3   68[BANK0 ] float 
  1780 ;; Auto vars:     Size  Location     Type
  1781 ;;  f3_as_produc    3   75[BANK0 ] unsigned um
  1782 ;;  sign            1   79[BANK0 ] unsigned char 
  1783 ;;  cntr            1   78[BANK0 ] unsigned char 
  1784 ;;  exp             1   74[BANK0 ] unsigned char 
  1785 ;; Return value:  Size  Location     Type
  1786 ;;                  3   65[BANK0 ] float 
  1787 ;; Registers used:
  1788 ;;		wreg, status,2, status,0, cstack
  1789 ;; Tracked objects:
  1790 ;;		On entry : 0/0
  1791 ;;		On exit  : 0/0
  1792 ;;		Unchanged: 0/0
  1793 ;; Data sizes:     COMRAM   BANK0   BANK1   BANK2   BANK3   BANK4   BANK5
  1794 ;;      Params:         0       6       0       0       0       0       0
  1795 ;;      Locals:         0       6       0       0       0       0       0
  1796 ;;      Temps:          0       3       0       0       0       0       0
  1797 ;;      Totals:         0      15       0       0       0       0       0
  1798 ;;Total ram usage:       15 bytes
  1799 ;; Hardware stack levels used:    1
  1800 ;; Hardware stack levels required when called:    7
  1801 ;; This function calls:
  1802 ;;		___ftpack
  1803 ;; This function is called by:
  1804 ;;		_WriteLCD
  1805 ;; This function uses a non-reentrant model
  1806 ;;
  1807                           
  1808                           	psect	text5
  1809  000F2A                     __ptext5:
  1810                           	opt stack 0
  1811  000F2A                     ___ftmul:
  1812                           	opt stack 22
  1813                           
  1814                           ; BSR set to: 0
  1815                           ;incstack = 0
  1816  000F2A  FFFF               	dw	65535
  1817  000F2C  0100               	movlb	0	; () banked
  1818  000F2E  C0C3  F0C7         	movff	___ftmul@f1+2,??___ftmul
  1819  000F32  0100               	movlb	0	; () banked
  1820  000F34  6BC8               	clrf	(??___ftmul+1)& (0+255),b
  1821  000F36  6BC9               	clrf	(??___ftmul+2)& (0+255),b
  1822  000F38  0100               	movlb	0	; () banked
  1823  000F3A  35C2               	rlcf	(___ftmul@f1+1)& (0+255),w,b
  1824  000F3C  0100               	movlb	0	; () banked
  1825  000F3E  37C7               	rlcf	??___ftmul& (0+255),f,b
  1826  000F40  E301               	bnc	u2661
  1827  000F42  81C8               	bsf	(??___ftmul+1)& (0+255),0,b
  1828  000F44                     u2661:
  1829  000F44  0100               	movlb	0	; () banked
  1830  000F46  51C7               	movf	??___ftmul& (0+255),w,b
  1831  000F48  0100               	movlb	0	; () banked
  1832  000F4A  6FCA               	movwf	___ftmul@exp& (0+255),b
  1833  000F4C  0100               	movlb	0	; () banked
  1834  000F4E  67CA               	tstfsz	___ftmul@exp& (0+255),b
  1835  000F50  D001               	goto	l2475
  1836  000F52  D013               	goto	u2690
  1837  000F54                     l2475:
  1838                           
  1839                           ; BSR set to: 0
  1840  000F54  0100               	movlb	0	; () banked
  1841  000F56  C0C6  F0C7         	movff	___ftmul@f2+2,??___ftmul
  1842  000F5A  0100               	movlb	0	; () banked
  1843  000F5C  6BC8               	clrf	(??___ftmul+1)& (0+255),b
  1844  000F5E  6BC9               	clrf	(??___ftmul+2)& (0+255),b
  1845  000F60  0100               	movlb	0	; () banked
  1846  000F62  35C5               	rlcf	(___ftmul@f2+1)& (0+255),w,b
  1847  000F64  0100               	movlb	0	; () banked
  1848  000F66  37C7               	rlcf	??___ftmul& (0+255),f,b
  1849  000F68  E301               	bnc	u2681
  1850  000F6A  81C8               	bsf	(??___ftmul+1)& (0+255),0,b
  1851  000F6C                     u2681:
  1852  000F6C  0100               	movlb	0	; () banked
  1853  000F6E  51C7               	movf	??___ftmul& (0+255),w,b
  1854  000F70  0100               	movlb	0	; () banked
  1855  000F72  6FCF               	movwf	___ftmul@sign& (0+255),b
  1856  000F74  0100               	movlb	0	; () banked
  1857  000F76  67CF               	tstfsz	___ftmul@sign& (0+255),b
  1858  000F78  D00A               	goto	l2481
  1859  000F7A                     u2690:
  1860                           
  1861                           ; BSR set to: 0
  1862  000F7A  0E00               	movlw	0
  1863  000F7C  0100               	movlb	0	; () banked
  1864  000F7E  6FC1               	movwf	?___ftmul& (0+255),b
  1865  000F80  0E00               	movlw	0
  1866  000F82  0100               	movlb	0	; () banked
  1867  000F84  6FC2               	movwf	(?___ftmul+1)& (0+255),b
  1868  000F86  0E00               	movlw	0
  1869  000F88  0100               	movlb	0	; () banked
  1870  000F8A  6FC3               	movwf	(?___ftmul+2)& (0+255),b
  1871  000F8C  D080               	goto	l622
  1872  000F8E                     l2481:
  1873                           
  1874                           ; BSR set to: 0
  1875  000F8E  0100               	movlb	0	; () banked
  1876  000F90  51CF               	movf	___ftmul@sign& (0+255),w,b
  1877  000F92  0F7B               	addlw	123
  1878  000F94  0100               	movlb	0	; () banked
  1879  000F96  27CA               	addwf	___ftmul@exp& (0+255),f,b
  1880                           
  1881                           ; BSR set to: 0
  1882  000F98  C0C3  F0CF         	movff	___ftmul@f1+2,___ftmul@sign
  1883  000F9C  0100               	movlb	0	; () banked
  1884  000F9E  51C6               	movf	(___ftmul@f2+2)& (0+255),w,b
  1885  000FA0  0100               	movlb	0	; () banked
  1886  000FA2  1BCF               	xorwf	___ftmul@sign& (0+255),f,b
  1887  000FA4  0E80               	movlw	128
  1888  000FA6  0100               	movlb	0	; () banked
  1889  000FA8  17CF               	andwf	___ftmul@sign& (0+255),f,b
  1890                           
  1891                           ; BSR set to: 0
  1892  000FAA  0100               	movlb	0	; () banked
  1893  000FAC  8FC2               	bsf	(___ftmul@f1+1)& (0+255),7,b
  1894                           
  1895                           ; BSR set to: 0
  1896  000FAE  0100               	movlb	0	; () banked
  1897  000FB0  8FC5               	bsf	(___ftmul@f2+1)& (0+255),7,b
  1898                           
  1899                           ; BSR set to: 0
  1900  000FB2  0EFF               	movlw	255
  1901  000FB4  0100               	movlb	0	; () banked
  1902  000FB6  17C4               	andwf	___ftmul@f2& (0+255),f,b
  1903  000FB8  0EFF               	movlw	255
  1904  000FBA  0100               	movlb	0	; () banked
  1905  000FBC  17C5               	andwf	(___ftmul@f2+1)& (0+255),f,b
  1906  000FBE  0E00               	movlw	0
  1907  000FC0  0100               	movlb	0	; () banked
  1908  000FC2  17C6               	andwf	(___ftmul@f2+2)& (0+255),f,b
  1909                           
  1910                           ; BSR set to: 0
  1911  000FC4  0E00               	movlw	0
  1912  000FC6  0100               	movlb	0	; () banked
  1913  000FC8  6FCB               	movwf	___ftmul@f3_as_product& (0+255),b
  1914  000FCA  0E00               	movlw	0
  1915  000FCC  0100               	movlb	0	; () banked
  1916  000FCE  6FCC               	movwf	(___ftmul@f3_as_product+1)& (0+255),b
  1917  000FD0  0E00               	movlw	0
  1918  000FD2  0100               	movlb	0	; () banked
  1919  000FD4  6FCD               	movwf	(___ftmul@f3_as_product+2)& (0+255),b
  1920                           
  1921                           ; BSR set to: 0
  1922  000FD6  0E07               	movlw	7
  1923  000FD8  0100               	movlb	0	; () banked
  1924  000FDA  6FCE               	movwf	___ftmul@cntr& (0+255),b
  1925  000FDC                     l2495:
  1926                           
  1927                           ; BSR set to: 0
  1928  000FDC  0100               	movlb	0	; () banked
  1929  000FDE  A1C1               	btfss	___ftmul@f1& (0+255),0,b
  1930  000FE0  D00C               	goto	l2499
  1931                           
  1932                           ; BSR set to: 0
  1933  000FE2  0100               	movlb	0	; () banked
  1934  000FE4  51C4               	movf	___ftmul@f2& (0+255),w,b
  1935  000FE6  0100               	movlb	0	; () banked
  1936  000FE8  27CB               	addwf	___ftmul@f3_as_product& (0+255),f,b
  1937  000FEA  0100               	movlb	0	; () banked
  1938  000FEC  51C5               	movf	(___ftmul@f2+1)& (0+255),w,b
  1939  000FEE  0100               	movlb	0	; () banked
  1940  000FF0  23CC               	addwfc	(___ftmul@f3_as_product+1)& (0+255),f,b
  1941  000FF2  0100               	movlb	0	; () banked
  1942  000FF4  51C6               	movf	(___ftmul@f2+2)& (0+255),w,b
  1943  000FF6  0100               	movlb	0	; () banked
  1944  000FF8  23CD               	addwfc	(___ftmul@f3_as_product+2)& (0+255),f,b
  1945  000FFA                     l2499:
  1946                           
  1947                           ; BSR set to: 0
  1948  000FFA  0100               	movlb	0	; () banked
  1949  000FFC  90D8               	bcf	status,0,c
  1950  000FFE  0100               	movlb	0	; () banked
  1951  001000  33C3               	rrcf	(___ftmul@f1+2)& (0+255),f,b
  1952  001002  0100               	movlb	0	; () banked
  1953  001004  33C2               	rrcf	(___ftmul@f1+1)& (0+255),f,b
  1954  001006  0100               	movlb	0	; () banked
  1955  001008  33C1               	rrcf	___ftmul@f1& (0+255),f,b
  1956  00100A  0100               	movlb	0	; () banked
  1957  00100C  90D8               	bcf	status,0,c
  1958  00100E  0100               	movlb	0	; () banked
  1959  001010  37C4               	rlcf	___ftmul@f2& (0+255),f,b
  1960  001012  0100               	movlb	0	; () banked
  1961  001014  37C5               	rlcf	(___ftmul@f2+1)& (0+255),f,b
  1962  001016  0100               	movlb	0	; () banked
  1963  001018  37C6               	rlcf	(___ftmul@f2+2)& (0+255),f,b
  1964                           
  1965                           ; BSR set to: 0
  1966  00101A  0100               	movlb	0	; () banked
  1967  00101C  2FCE               	decfsz	___ftmul@cntr& (0+255),f,b
  1968  00101E  D7DE               	goto	l2495
  1969                           
  1970                           ; BSR set to: 0
  1971                           
  1972                           ; BSR set to: 0
  1973  001020  0E09               	movlw	9
  1974  001022  0100               	movlb	0	; () banked
  1975  001024  6FCE               	movwf	___ftmul@cntr& (0+255),b
  1976  001026                     l2505:
  1977                           
  1978                           ; BSR set to: 0
  1979  001026  0100               	movlb	0	; () banked
  1980  001028  A1C1               	btfss	___ftmul@f1& (0+255),0,b
  1981  00102A  D00C               	goto	l2509
  1982                           
  1983                           ; BSR set to: 0
  1984  00102C  0100               	movlb	0	; () banked
  1985  00102E  51C4               	movf	___ftmul@f2& (0+255),w,b
  1986  001030  0100               	movlb	0	; () banked
  1987  001032  27CB               	addwf	___ftmul@f3_as_product& (0+255),f,b
  1988  001034  0100               	movlb	0	; () banked
  1989  001036  51C5               	movf	(___ftmul@f2+1)& (0+255),w,b
  1990  001038  0100               	movlb	0	; () banked
  1991  00103A  23CC               	addwfc	(___ftmul@f3_as_product+1)& (0+255),f,b
  1992  00103C  0100               	movlb	0	; () banked
  1993  00103E  51C6               	movf	(___ftmul@f2+2)& (0+255),w,b
  1994  001040  0100               	movlb	0	; () banked
  1995  001042  23CD               	addwfc	(___ftmul@f3_as_product+2)& (0+255),f,b
  1996  001044                     l2509:
  1997                           
  1998                           ; BSR set to: 0
  1999  001044  0100               	movlb	0	; () banked
  2000  001046  90D8               	bcf	status,0,c
  2001  001048  0100               	movlb	0	; () banked
  2002  00104A  33C3               	rrcf	(___ftmul@f1+2)& (0+255),f,b
  2003  00104C  0100               	movlb	0	; () banked
  2004  00104E  33C2               	rrcf	(___ftmul@f1+1)& (0+255),f,b
  2005  001050  0100               	movlb	0	; () banked
  2006  001052  33C1               	rrcf	___ftmul@f1& (0+255),f,b
  2007  001054  0100               	movlb	0	; () banked
  2008  001056  90D8               	bcf	status,0,c
  2009  001058  0100               	movlb	0	; () banked
  2010  00105A  33CD               	rrcf	(___ftmul@f3_as_product+2)& (0+255),f,b
  2011  00105C  0100               	movlb	0	; () banked
  2012  00105E  33CC               	rrcf	(___ftmul@f3_as_product+1)& (0+255),f,b
  2013  001060  0100               	movlb	0	; () banked
  2014  001062  33CB               	rrcf	___ftmul@f3_as_product& (0+255),f,b
  2015                           
  2016                           ; BSR set to: 0
  2017  001064  0100               	movlb	0	; () banked
  2018  001066  2FCE               	decfsz	___ftmul@cntr& (0+255),f,b
  2019  001068  D7DE               	goto	l2505
  2020                           
  2021                           ; BSR set to: 0
  2022                           
  2023                           ; BSR set to: 0
  2024  00106A  C0CB  F09F         	movff	___ftmul@f3_as_product,___ftpack@arg
  2025  00106E  C0CC  F0A0         	movff	___ftmul@f3_as_product+1,___ftpack@arg+1
  2026  001072  C0CD  F0A1         	movff	___ftmul@f3_as_product+2,___ftpack@arg+2
  2027  001076  C0CA  F0A2         	movff	___ftmul@exp,___ftpack@exp
  2028  00107A  C0CF  F0A3         	movff	___ftmul@sign,___ftpack@sign
  2029  00107E  EC38  F00A         	call	___ftpack	;wreg free
  2030  001082  C09F  F0C1         	movff	?___ftpack,?___ftmul
  2031  001086  C0A0  F0C2         	movff	?___ftpack+1,?___ftmul+1
  2032  00108A  C0A1  F0C3         	movff	?___ftpack+2,?___ftmul+2
  2033  00108E                     l622:
  2034  00108E  0012               	return	
  2035  001090  FFFF               	dw	65535	; errata NOP
  2036  001092                     __end_of___ftmul:
  2037                           	opt stack 0
  2038                           tblptru	equ	0xFF8
  2039                           tblptrh	equ	0xFF7
  2040                           tblptrl	equ	0xFF6
  2041                           tablat	equ	0xFF5
  2042                           postinc0	equ	0xFEE
  2043                           wreg	equ	0xFE8
  2044                           postinc1	equ	0xFE6
  2045                           postdec1	equ	0xFE5
  2046                           fsr1l	equ	0xFE1
  2047                           indf2	equ	0xFDF
  2048                           postinc2	equ	0xFDE
  2049                           fsr2h	equ	0xFDA
  2050                           fsr2l	equ	0xFD9
  2051                           status	equ	0xFD8
  2052                           
  2053 ;; *************** function ___ftge *****************
  2054 ;; Defined at:
  2055 ;;		line 4 in file "/Applications/microchip/xc8/v1.33/sources/common/ftge.c"
  2056 ;; Parameters:    Size  Location     Type
  2057 ;;  ff1             3   31[BANK0 ] float 
  2058 ;;  ff2             3   34[BANK0 ] float 
  2059 ;; Auto vars:     Size  Location     Type
  2060 ;;		None
  2061 ;; Return value:  Size  Location     Type
  2062 ;;		None               void
  2063 ;; Registers used:
  2064 ;;		wreg, status,2, status,0
  2065 ;; Tracked objects:
  2066 ;;		On entry : 0/0
  2067 ;;		On exit  : 0/0
  2068 ;;		Unchanged: 0/0
  2069 ;; Data sizes:     COMRAM   BANK0   BANK1   BANK2   BANK3   BANK4   BANK5
  2070 ;;      Params:         0       6       0       0       0       0       0
  2071 ;;      Locals:         0       0       0       0       0       0       0
  2072 ;;      Temps:          0       3       0       0       0       0       0
  2073 ;;      Totals:         0       9       0       0       0       0       0
  2074 ;;Total ram usage:        9 bytes
  2075 ;; Hardware stack levels used:    1
  2076 ;; Hardware stack levels required when called:    6
  2077 ;; This function calls:
  2078 ;;		Nothing
  2079 ;; This function is called by:
  2080 ;;		_WriteLCD
  2081 ;; This function uses a non-reentrant model
  2082 ;;
  2083                           
  2084                           	psect	text6
  2085  001658                     __ptext6:
  2086                           	opt stack 0
  2087  001658                     ___ftge:
  2088                           	opt stack 23
  2089                           
  2090                           ;incstack = 0
  2091  001658  FFFF               	dw	65535
  2092  00165A  0100               	movlb	0	; () banked
  2093  00165C  AFA1               	btfss	(___ftge@ff1+2)& (0+255),7,b
  2094  00165E  D020               	goto	l2533
  2095                           
  2096                           ; BSR set to: 0
  2097  001660  0100               	movlb	0	; () banked
  2098  001662  C09F  F0A5         	movff	___ftge@ff1,??___ftge
  2099  001666  0100               	movlb	0	; () banked
  2100  001668  C0A0  F0A6         	movff	___ftge@ff1+1,??___ftge+1
  2101  00166C  0100               	movlb	0	; () banked
  2102  00166E  C0A1  F0A7         	movff	___ftge@ff1+2,??___ftge+2
  2103  001672  0100               	movlb	0	; () banked
  2104  001674  1FA5               	comf	??___ftge& (0+255),f,b
  2105  001676  1FA6               	comf	(??___ftge+1)& (0+255),f,b
  2106  001678  1FA7               	comf	(??___ftge+2)& (0+255),f,b
  2107  00167A  2BA5               	incf	??___ftge& (0+255),f,b
  2108  00167C  0E00               	movlw	0
  2109  00167E  23A6               	addwfc	(??___ftge+1)& (0+255),f,b
  2110  001680  23A7               	addwfc	(??___ftge+2)& (0+255),f,b
  2111  001682  0E00               	movlw	0
  2112  001684  0100               	movlb	0	; () banked
  2113  001686  25A5               	addwf	??___ftge& (0+255),w,b
  2114  001688  0100               	movlb	0	; () banked
  2115  00168A  6F9F               	movwf	___ftge@ff1& (0+255),b
  2116  00168C  0E00               	movlw	0
  2117  00168E  0100               	movlb	0	; () banked
  2118  001690  21A6               	addwfc	(??___ftge+1)& (0+255),w,b
  2119  001692  0100               	movlb	0	; () banked
  2120  001694  6FA0               	movwf	(___ftge@ff1+1)& (0+255),b
  2121  001696  0E80               	movlw	128
  2122  001698  0100               	movlb	0	; () banked
  2123  00169A  21A7               	addwfc	(??___ftge+2)& (0+255),w,b
  2124  00169C  0100               	movlb	0	; () banked
  2125  00169E  6FA1               	movwf	(___ftge@ff1+2)& (0+255),b
  2126  0016A0                     l2533:
  2127                           
  2128                           ; BSR set to: 0
  2129  0016A0  0100               	movlb	0	; () banked
  2130  0016A2  AFA4               	btfss	(___ftge@ff2+2)& (0+255),7,b
  2131  0016A4  D020               	goto	l2537
  2132                           
  2133                           ; BSR set to: 0
  2134  0016A6  0100               	movlb	0	; () banked
  2135  0016A8  C0A2  F0A5         	movff	___ftge@ff2,??___ftge
  2136  0016AC  0100               	movlb	0	; () banked
  2137  0016AE  C0A3  F0A6         	movff	___ftge@ff2+1,??___ftge+1
  2138  0016B2  0100               	movlb	0	; () banked
  2139  0016B4  C0A4  F0A7         	movff	___ftge@ff2+2,??___ftge+2
  2140  0016B8  0100               	movlb	0	; () banked
  2141  0016BA  1FA5               	comf	??___ftge& (0+255),f,b
  2142  0016BC  1FA6               	comf	(??___ftge+1)& (0+255),f,b
  2143  0016BE  1FA7               	comf	(??___ftge+2)& (0+255),f,b
  2144  0016C0  2BA5               	incf	??___ftge& (0+255),f,b
  2145  0016C2  0E00               	movlw	0
  2146  0016C4  23A6               	addwfc	(??___ftge+1)& (0+255),f,b
  2147  0016C6  23A7               	addwfc	(??___ftge+2)& (0+255),f,b
  2148  0016C8  0E00               	movlw	0
  2149  0016CA  0100               	movlb	0	; () banked
  2150  0016CC  25A5               	addwf	??___ftge& (0+255),w,b
  2151  0016CE  0100               	movlb	0	; () banked
  2152  0016D0  6FA2               	movwf	___ftge@ff2& (0+255),b
  2153  0016D2  0E00               	movlw	0
  2154  0016D4  0100               	movlb	0	; () banked
  2155  0016D6  21A6               	addwfc	(??___ftge+1)& (0+255),w,b
  2156  0016D8  0100               	movlb	0	; () banked
  2157  0016DA  6FA3               	movwf	(___ftge@ff2+1)& (0+255),b
  2158  0016DC  0E80               	movlw	128
  2159  0016DE  0100               	movlb	0	; () banked
  2160  0016E0  21A7               	addwfc	(??___ftge+2)& (0+255),w,b
  2161  0016E2  0100               	movlb	0	; () banked
  2162  0016E4  6FA4               	movwf	(___ftge@ff2+2)& (0+255),b
  2163  0016E6                     l2537:
  2164                           
  2165                           ; BSR set to: 0
  2166  0016E6  0E00               	movlw	0
  2167  0016E8  0100               	movlb	0	; () banked
  2168  0016EA  1B9F               	xorwf	___ftge@ff1& (0+255),f,b
  2169  0016EC  0E00               	movlw	0
  2170  0016EE  0100               	movlb	0	; () banked
  2171  0016F0  1BA0               	xorwf	(___ftge@ff1+1)& (0+255),f,b
  2172  0016F2  0E80               	movlw	128
  2173  0016F4  0100               	movlb	0	; () banked
  2174  0016F6  1BA1               	xorwf	(___ftge@ff1+2)& (0+255),f,b
  2175                           
  2176                           ; BSR set to: 0
  2177  0016F8  0E00               	movlw	0
  2178  0016FA  0100               	movlb	0	; () banked
  2179  0016FC  1BA2               	xorwf	___ftge@ff2& (0+255),f,b
  2180  0016FE  0E00               	movlw	0
  2181  001700  0100               	movlb	0	; () banked
  2182  001702  1BA3               	xorwf	(___ftge@ff2+1)& (0+255),f,b
  2183  001704  0E80               	movlw	128
  2184  001706  0100               	movlb	0	; () banked
  2185  001708  1BA4               	xorwf	(___ftge@ff2+2)& (0+255),f,b
  2186  00170A  0100               	movlb	0	; () banked
  2187  00170C  51A2               	movf	___ftge@ff2& (0+255),w,b
  2188  00170E  0100               	movlb	0	; () banked
  2189  001710  5D9F               	subwf	___ftge@ff1& (0+255),w,b
  2190  001712  0100               	movlb	0	; () banked
  2191  001714  51A3               	movf	(___ftge@ff2+1)& (0+255),w,b
  2192  001716  0100               	movlb	0	; () banked
  2193  001718  59A0               	subwfb	(___ftge@ff1+1)& (0+255),w,b
  2194  00171A  0100               	movlb	0	; () banked
  2195  00171C  51A4               	movf	(___ftge@ff2+2)& (0+255),w,b
  2196  00171E  0100               	movlb	0	; () banked
  2197  001720  59A1               	subwfb	(___ftge@ff1+2)& (0+255),w,b
  2198  001722  B0D8               	btfsc	status,0,c
  2199  001724  D002               	goto	l2543
  2200                           
  2201                           ; BSR set to: 0
  2202  001726  90D8               	bcf	status,0,c
  2203  001728  D001               	goto	l616
  2204  00172A                     l2543:
  2205                           
  2206                           ; BSR set to: 0
  2207  00172A  80D8               	bsf	status,0,c
  2208  00172C                     l616:
  2209                           
  2210                           ; BSR set to: 0
  2211  00172C  0012               	return	
  2212  00172E  FFFF               	dw	65535	; errata NOP
  2213  001730                     __end_of___ftge:
  2214                           	opt stack 0
  2215                           tblptru	equ	0xFF8
  2216                           tblptrh	equ	0xFF7
  2217                           tblptrl	equ	0xFF6
  2218                           tablat	equ	0xFF5
  2219                           postinc0	equ	0xFEE
  2220                           wreg	equ	0xFE8
  2221                           postinc1	equ	0xFE6
  2222                           postdec1	equ	0xFE5
  2223                           fsr1l	equ	0xFE1
  2224                           indf2	equ	0xFDF
  2225                           postinc2	equ	0xFDE
  2226                           fsr2h	equ	0xFDA
  2227                           fsr2l	equ	0xFD9
  2228                           status	equ	0xFD8
  2229                           
  2230 ;; *************** function ___ftdiv *****************
  2231 ;; Defined at:
  2232 ;;		line 49 in file "/Applications/microchip/xc8/v1.33/sources/common/ftdiv.c"
  2233 ;; Parameters:    Size  Location     Type
  2234 ;;  f1              3   39[BANK0 ] float 
  2235 ;;  f2              3   42[BANK0 ] float 
  2236 ;; Auto vars:     Size  Location     Type
  2237 ;;  f3              3   49[BANK0 ] float 
  2238 ;;  sign            1   53[BANK0 ] unsigned char 
  2239 ;;  exp             1   52[BANK0 ] unsigned char 
  2240 ;;  cntr            1   48[BANK0 ] unsigned char 
  2241 ;; Return value:  Size  Location     Type
  2242 ;;                  3   39[BANK0 ] float 
  2243 ;; Registers used:
  2244 ;;		wreg, status,2, status,0, cstack
  2245 ;; Tracked objects:
  2246 ;;		On entry : 0/0
  2247 ;;		On exit  : 0/0
  2248 ;;		Unchanged: 0/0
  2249 ;; Data sizes:     COMRAM   BANK0   BANK1   BANK2   BANK3   BANK4   BANK5
  2250 ;;      Params:         0       6       0       0       0       0       0
  2251 ;;      Locals:         0       6       0       0       0       0       0
  2252 ;;      Temps:          0       3       0       0       0       0       0
  2253 ;;      Totals:         0      15       0       0       0       0       0
  2254 ;;Total ram usage:       15 bytes
  2255 ;; Hardware stack levels used:    1
  2256 ;; Hardware stack levels required when called:    7
  2257 ;; This function calls:
  2258 ;;		___ftpack
  2259 ;; This function is called by:
  2260 ;;		_WriteLCD
  2261 ;; This function uses a non-reentrant model
  2262 ;;
  2263                           
  2264                           	psect	text7
  2265  0011E0                     __ptext7:
  2266                           	opt stack 0
  2267  0011E0                     ___ftdiv:
  2268                           	opt stack 22
  2269                           
  2270                           ; BSR set to: 0
  2271                           ;incstack = 0
  2272  0011E0  FFFF               	dw	65535
  2273  0011E2  0100               	movlb	0	; () banked
  2274  0011E4  C0A9  F0AD         	movff	___ftdiv@f1+2,??___ftdiv
  2275  0011E8  0100               	movlb	0	; () banked
  2276  0011EA  6BAE               	clrf	(??___ftdiv+1)& (0+255),b
  2277  0011EC  6BAF               	clrf	(??___ftdiv+2)& (0+255),b
  2278  0011EE  0100               	movlb	0	; () banked
  2279  0011F0  35A8               	rlcf	(___ftdiv@f1+1)& (0+255),w,b
  2280  0011F2  0100               	movlb	0	; () banked
  2281  0011F4  37AD               	rlcf	??___ftdiv& (0+255),f,b
  2282  0011F6  E301               	bnc	u2611
  2283  0011F8  81AE               	bsf	(??___ftdiv+1)& (0+255),0,b
  2284  0011FA                     u2611:
  2285  0011FA  0100               	movlb	0	; () banked
  2286  0011FC  51AD               	movf	??___ftdiv& (0+255),w,b
  2287  0011FE  0100               	movlb	0	; () banked
  2288  001200  6FB4               	movwf	___ftdiv@exp& (0+255),b
  2289  001202  0100               	movlb	0	; () banked
  2290  001204  67B4               	tstfsz	___ftdiv@exp& (0+255),b
  2291  001206  D001               	goto	l2429
  2292  001208  D013               	goto	u2640
  2293  00120A                     l2429:
  2294                           
  2295                           ; BSR set to: 0
  2296  00120A  0100               	movlb	0	; () banked
  2297  00120C  C0AC  F0AD         	movff	___ftdiv@f2+2,??___ftdiv
  2298  001210  0100               	movlb	0	; () banked
  2299  001212  6BAE               	clrf	(??___ftdiv+1)& (0+255),b
  2300  001214  6BAF               	clrf	(??___ftdiv+2)& (0+255),b
  2301  001216  0100               	movlb	0	; () banked
  2302  001218  35AB               	rlcf	(___ftdiv@f2+1)& (0+255),w,b
  2303  00121A  0100               	movlb	0	; () banked
  2304  00121C  37AD               	rlcf	??___ftdiv& (0+255),f,b
  2305  00121E  E301               	bnc	u2631
  2306  001220  81AE               	bsf	(??___ftdiv+1)& (0+255),0,b
  2307  001222                     u2631:
  2308  001222  0100               	movlb	0	; () banked
  2309  001224  51AD               	movf	??___ftdiv& (0+255),w,b
  2310  001226  0100               	movlb	0	; () banked
  2311  001228  6FB5               	movwf	___ftdiv@sign& (0+255),b
  2312  00122A  0100               	movlb	0	; () banked
  2313  00122C  67B5               	tstfsz	___ftdiv@sign& (0+255),b
  2314  00122E  D00A               	goto	l2435
  2315  001230                     u2640:
  2316                           
  2317                           ; BSR set to: 0
  2318  001230  0E00               	movlw	0
  2319  001232  0100               	movlb	0	; () banked
  2320  001234  6FA7               	movwf	?___ftdiv& (0+255),b
  2321  001236  0E00               	movlw	0
  2322  001238  0100               	movlb	0	; () banked
  2323  00123A  6FA8               	movwf	(?___ftdiv+1)& (0+255),b
  2324  00123C  0E00               	movlw	0
  2325  00123E  0100               	movlb	0	; () banked
  2326  001240  6FA9               	movwf	(?___ftdiv+2)& (0+255),b
  2327  001242  D071               	goto	l607
  2328  001244                     l2435:
  2329                           
  2330                           ; BSR set to: 0
  2331  001244  0E00               	movlw	0
  2332  001246  0100               	movlb	0	; () banked
  2333  001248  6FB1               	movwf	___ftdiv@f3& (0+255),b
  2334  00124A  0E00               	movlw	0
  2335  00124C  0100               	movlb	0	; () banked
  2336  00124E  6FB2               	movwf	(___ftdiv@f3+1)& (0+255),b
  2337  001250  0E00               	movlw	0
  2338  001252  0100               	movlb	0	; () banked
  2339  001254  6FB3               	movwf	(___ftdiv@f3+2)& (0+255),b
  2340                           
  2341                           ; BSR set to: 0
  2342  001256  0100               	movlb	0	; () banked
  2343  001258  51B5               	movf	___ftdiv@sign& (0+255),w,b
  2344  00125A  0F89               	addlw	137
  2345  00125C  0100               	movlb	0	; () banked
  2346  00125E  5FB4               	subwf	___ftdiv@exp& (0+255),f,b
  2347                           
  2348                           ; BSR set to: 0
  2349  001260  C0A9  F0B5         	movff	___ftdiv@f1+2,___ftdiv@sign
  2350                           
  2351                           ; BSR set to: 0
  2352  001264  0100               	movlb	0	; () banked
  2353  001266  51AC               	movf	(___ftdiv@f2+2)& (0+255),w,b
  2354  001268  0100               	movlb	0	; () banked
  2355  00126A  1BB5               	xorwf	___ftdiv@sign& (0+255),f,b
  2356                           
  2357                           ; BSR set to: 0
  2358  00126C  0E80               	movlw	128
  2359  00126E  0100               	movlb	0	; () banked
  2360  001270  17B5               	andwf	___ftdiv@sign& (0+255),f,b
  2361                           
  2362                           ; BSR set to: 0
  2363  001272  0100               	movlb	0	; () banked
  2364  001274  8FA8               	bsf	(___ftdiv@f1+1)& (0+255),7,b
  2365                           
  2366                           ; BSR set to: 0
  2367  001276  0EFF               	movlw	255
  2368  001278  0100               	movlb	0	; () banked
  2369  00127A  17A7               	andwf	___ftdiv@f1& (0+255),f,b
  2370  00127C  0EFF               	movlw	255
  2371  00127E  0100               	movlb	0	; () banked
  2372  001280  17A8               	andwf	(___ftdiv@f1+1)& (0+255),f,b
  2373  001282  0E00               	movlw	0
  2374  001284  0100               	movlb	0	; () banked
  2375  001286  17A9               	andwf	(___ftdiv@f1+2)& (0+255),f,b
  2376                           
  2377                           ; BSR set to: 0
  2378  001288  0100               	movlb	0	; () banked
  2379  00128A  8FAB               	bsf	(___ftdiv@f2+1)& (0+255),7,b
  2380                           
  2381                           ; BSR set to: 0
  2382  00128C  0EFF               	movlw	255
  2383  00128E  0100               	movlb	0	; () banked
  2384  001290  17AA               	andwf	___ftdiv@f2& (0+255),f,b
  2385  001292  0EFF               	movlw	255
  2386  001294  0100               	movlb	0	; () banked
  2387  001296  17AB               	andwf	(___ftdiv@f2+1)& (0+255),f,b
  2388  001298  0E00               	movlw	0
  2389  00129A  0100               	movlb	0	; () banked
  2390  00129C  17AC               	andwf	(___ftdiv@f2+2)& (0+255),f,b
  2391                           
  2392                           ; BSR set to: 0
  2393  00129E  0E18               	movlw	24
  2394  0012A0  0100               	movlb	0	; () banked
  2395  0012A2  6FB0               	movwf	___ftdiv@cntr& (0+255),b
  2396  0012A4                     l2455:
  2397                           
  2398                           ; BSR set to: 0
  2399  0012A4  0100               	movlb	0	; () banked
  2400  0012A6  90D8               	bcf	status,0,c
  2401  0012A8  0100               	movlb	0	; () banked
  2402  0012AA  37B1               	rlcf	___ftdiv@f3& (0+255),f,b
  2403  0012AC  0100               	movlb	0	; () banked
  2404  0012AE  37B2               	rlcf	(___ftdiv@f3+1)& (0+255),f,b
  2405  0012B0  0100               	movlb	0	; () banked
  2406  0012B2  37B3               	rlcf	(___ftdiv@f3+2)& (0+255),f,b
  2407                           
  2408                           ; BSR set to: 0
  2409  0012B4  0100               	movlb	0	; () banked
  2410  0012B6  51AA               	movf	___ftdiv@f2& (0+255),w,b
  2411  0012B8  0100               	movlb	0	; () banked
  2412  0012BA  5DA7               	subwf	___ftdiv@f1& (0+255),w,b
  2413  0012BC  0100               	movlb	0	; () banked
  2414  0012BE  51AB               	movf	(___ftdiv@f2+1)& (0+255),w,b
  2415  0012C0  0100               	movlb	0	; () banked
  2416  0012C2  59A8               	subwfb	(___ftdiv@f1+1)& (0+255),w,b
  2417  0012C4  0100               	movlb	0	; () banked
  2418  0012C6  51AC               	movf	(___ftdiv@f2+2)& (0+255),w,b
  2419  0012C8  0100               	movlb	0	; () banked
  2420  0012CA  59A9               	subwfb	(___ftdiv@f1+2)& (0+255),w,b
  2421  0012CC  A0D8               	btfss	status,0,c
  2422  0012CE  D00E               	goto	l610
  2423                           
  2424                           ; BSR set to: 0
  2425  0012D0  0100               	movlb	0	; () banked
  2426  0012D2  51AA               	movf	___ftdiv@f2& (0+255),w,b
  2427  0012D4  0100               	movlb	0	; () banked
  2428  0012D6  5FA7               	subwf	___ftdiv@f1& (0+255),f,b
  2429  0012D8  0100               	movlb	0	; () banked
  2430  0012DA  51AB               	movf	(___ftdiv@f2+1)& (0+255),w,b
  2431  0012DC  0100               	movlb	0	; () banked
  2432  0012DE  5BA8               	subwfb	(___ftdiv@f1+1)& (0+255),f,b
  2433  0012E0  0100               	movlb	0	; () banked
  2434  0012E2  51AC               	movf	(___ftdiv@f2+2)& (0+255),w,b
  2435  0012E4  0100               	movlb	0	; () banked
  2436  0012E6  5BA9               	subwfb	(___ftdiv@f1+2)& (0+255),f,b
  2437                           
  2438                           ; BSR set to: 0
  2439  0012E8  0100               	movlb	0	; () banked
  2440  0012EA  81B1               	bsf	___ftdiv@f3& (0+255),0,b
  2441  0012EC                     l610:
  2442                           
  2443                           ; BSR set to: 0
  2444  0012EC  0100               	movlb	0	; () banked
  2445  0012EE  90D8               	bcf	status,0,c
  2446  0012F0  0100               	movlb	0	; () banked
  2447  0012F2  37A7               	rlcf	___ftdiv@f1& (0+255),f,b
  2448  0012F4  0100               	movlb	0	; () banked
  2449  0012F6  37A8               	rlcf	(___ftdiv@f1+1)& (0+255),f,b
  2450  0012F8  0100               	movlb	0	; () banked
  2451  0012FA  37A9               	rlcf	(___ftdiv@f1+2)& (0+255),f,b
  2452                           
  2453                           ; BSR set to: 0
  2454  0012FC  0100               	movlb	0	; () banked
  2455  0012FE  2FB0               	decfsz	___ftdiv@cntr& (0+255),f,b
  2456  001300  D7D1               	goto	l2455
  2457                           
  2458                           ; BSR set to: 0
  2459                           
  2460                           ; BSR set to: 0
  2461  001302  C0B1  F09F         	movff	___ftdiv@f3,___ftpack@arg
  2462  001306  C0B2  F0A0         	movff	___ftdiv@f3+1,___ftpack@arg+1
  2463  00130A  C0B3  F0A1         	movff	___ftdiv@f3+2,___ftpack@arg+2
  2464  00130E  C0B4  F0A2         	movff	___ftdiv@exp,___ftpack@exp
  2465  001312  C0B5  F0A3         	movff	___ftdiv@sign,___ftpack@sign
  2466  001316  EC38  F00A         	call	___ftpack	;wreg free
  2467  00131A  C09F  F0A7         	movff	?___ftpack,?___ftdiv
  2468  00131E  C0A0  F0A8         	movff	?___ftpack+1,?___ftdiv+1
  2469  001322  C0A1  F0A9         	movff	?___ftpack+2,?___ftdiv+2
  2470  001326                     l607:
  2471  001326  0012               	return	
  2472  001328  FFFF               	dw	65535	; errata NOP
  2473  00132A                     __end_of___ftdiv:
  2474                           	opt stack 0
  2475                           tblptru	equ	0xFF8
  2476                           tblptrh	equ	0xFF7
  2477                           tblptrl	equ	0xFF6
  2478                           tablat	equ	0xFF5
  2479                           postinc0	equ	0xFEE
  2480                           wreg	equ	0xFE8
  2481                           postinc1	equ	0xFE6
  2482                           postdec1	equ	0xFE5
  2483                           fsr1l	equ	0xFE1
  2484                           indf2	equ	0xFDF
  2485                           postinc2	equ	0xFDE
  2486                           fsr2h	equ	0xFDA
  2487                           fsr2l	equ	0xFD9
  2488                           status	equ	0xFD8
  2489                           
  2490 ;; *************** function ___ftadd *****************
  2491 ;; Defined at:
  2492 ;;		line 86 in file "/Applications/microchip/xc8/v1.33/sources/common/ftadd.c"
  2493 ;; Parameters:    Size  Location     Type
  2494 ;;  f1              3   53[BANK0 ] float 
  2495 ;;  f2              3   56[BANK0 ] float 
  2496 ;; Auto vars:     Size  Location     Type
  2497 ;;  exp1            1   64[BANK0 ] unsigned char 
  2498 ;;  exp2            1   63[BANK0 ] unsigned char 
  2499 ;;  sign            1   62[BANK0 ] unsigned char 
  2500 ;; Return value:  Size  Location     Type
  2501 ;;                  3   53[BANK0 ] float 
  2502 ;; Registers used:
  2503 ;;		wreg, status,2, status,0, cstack
  2504 ;; Tracked objects:
  2505 ;;		On entry : 0/0
  2506 ;;		On exit  : 0/0
  2507 ;;		Unchanged: 0/0
  2508 ;; Data sizes:     COMRAM   BANK0   BANK1   BANK2   BANK3   BANK4   BANK5
  2509 ;;      Params:         0       6       0       0       0       0       0
  2510 ;;      Locals:         0       3       0       0       0       0       0
  2511 ;;      Temps:          0       3       0       0       0       0       0
  2512 ;;      Totals:         0      12       0       0       0       0       0
  2513 ;;Total ram usage:       12 bytes
  2514 ;; Hardware stack levels used:    1
  2515 ;; Hardware stack levels required when called:    7
  2516 ;; This function calls:
  2517 ;;		___ftpack
  2518 ;; This function is called by:
  2519 ;;		_WriteLCD
  2520 ;; This function uses a non-reentrant model
  2521 ;;
  2522                           
  2523                           	psect	text8
  2524  0008AA                     __ptext8:
  2525                           	opt stack 0
  2526  0008AA                     ___ftadd:
  2527                           	opt stack 22
  2528                           
  2529                           ;incstack = 0
  2530  0008AA  FFFF               	dw	65535
  2531  0008AC  0100               	movlb	0	; () banked
  2532  0008AE  C0B7  F0BB         	movff	___ftadd@f1+2,??___ftadd
  2533  0008B2  0100               	movlb	0	; () banked
  2534  0008B4  6BBC               	clrf	(??___ftadd+1)& (0+255),b
  2535  0008B6  6BBD               	clrf	(??___ftadd+2)& (0+255),b
  2536  0008B8  0100               	movlb	0	; () banked
  2537  0008BA  35B6               	rlcf	(___ftadd@f1+1)& (0+255),w,b
  2538  0008BC  0100               	movlb	0	; () banked
  2539  0008BE  37BB               	rlcf	??___ftadd& (0+255),f,b
  2540  0008C0  E301               	bnc	u2401
  2541  0008C2  81BC               	bsf	(??___ftadd+1)& (0+255),0,b
  2542  0008C4                     u2401:
  2543  0008C4  0100               	movlb	0	; () banked
  2544  0008C6  51BB               	movf	??___ftadd& (0+255),w,b
  2545  0008C8  0100               	movlb	0	; () banked
  2546  0008CA  6FC0               	movwf	___ftadd@exp1& (0+255),b
  2547  0008CC  0100               	movlb	0	; () banked
  2548  0008CE  C0BA  F0BB         	movff	___ftadd@f2+2,??___ftadd
  2549  0008D2  0100               	movlb	0	; () banked
  2550  0008D4  6BBC               	clrf	(??___ftadd+1)& (0+255),b
  2551  0008D6  6BBD               	clrf	(??___ftadd+2)& (0+255),b
  2552  0008D8  0100               	movlb	0	; () banked
  2553  0008DA  35B9               	rlcf	(___ftadd@f2+1)& (0+255),w,b
  2554  0008DC  0100               	movlb	0	; () banked
  2555  0008DE  37BB               	rlcf	??___ftadd& (0+255),f,b
  2556  0008E0  E301               	bnc	u2411
  2557  0008E2  81BC               	bsf	(??___ftadd+1)& (0+255),0,b
  2558  0008E4                     u2411:
  2559  0008E4  0100               	movlb	0	; () banked
  2560  0008E6  51BB               	movf	??___ftadd& (0+255),w,b
  2561  0008E8  0100               	movlb	0	; () banked
  2562  0008EA  6FBF               	movwf	___ftadd@exp2& (0+255),b
  2563                           
  2564                           ; BSR set to: 0
  2565  0008EC  0100               	movlb	0	; () banked
  2566  0008EE  51C0               	movf	___ftadd@exp1& (0+255),w,b
  2567  0008F0  B4D8               	btfsc	status,2,c
  2568  0008F2  D012               	goto	l575
  2569                           
  2570                           ; BSR set to: 0
  2571  0008F4  0100               	movlb	0	; () banked
  2572  0008F6  51BF               	movf	___ftadd@exp2& (0+255),w,b
  2573  0008F8  0100               	movlb	0	; () banked
  2574  0008FA  5DC0               	subwf	___ftadd@exp1& (0+255),w,b
  2575  0008FC  B0D8               	btfsc	status,0,c
  2576  0008FE  D013               	goto	l2361
  2577                           
  2578                           ; BSR set to: 0
  2579  000900  0100               	movlb	0	; () banked
  2580  000902  51C0               	movf	___ftadd@exp1& (0+255),w,b
  2581  000904  0800               	sublw	0
  2582  000906  0100               	movlb	0	; () banked
  2583  000908  25BF               	addwf	___ftadd@exp2& (0+255),w,b
  2584  00090A  0100               	movlb	0	; () banked
  2585  00090C  6FBB               	movwf	??___ftadd& (0+255),b
  2586  00090E  0E19               	movlw	25
  2587  000910  0100               	movlb	0	; () banked
  2588  000912  5DBB               	subwf	??___ftadd& (0+255),w,b
  2589  000914  A0D8               	btfss	status,0,c
  2590  000916  D007               	goto	l2361
  2591  000918                     l575:
  2592                           
  2593                           ; BSR set to: 0
  2594  000918  C0B8  F0B5         	movff	___ftadd@f2,?___ftadd
  2595  00091C  C0B9  F0B6         	movff	___ftadd@f2+1,?___ftadd+1
  2596  000920  C0BA  F0B7         	movff	___ftadd@f2+2,?___ftadd+2
  2597  000924  D102               	goto	l576
  2598  000926                     l2361:
  2599                           
  2600                           ; BSR set to: 0
  2601  000926  0100               	movlb	0	; () banked
  2602  000928  51BF               	movf	___ftadd@exp2& (0+255),w,b
  2603  00092A  B4D8               	btfsc	status,2,c
  2604  00092C  D012               	goto	l579
  2605                           
  2606                           ; BSR set to: 0
  2607  00092E  0100               	movlb	0	; () banked
  2608  000930  51C0               	movf	___ftadd@exp1& (0+255),w,b
  2609  000932  0100               	movlb	0	; () banked
  2610  000934  5DBF               	subwf	___ftadd@exp2& (0+255),w,b
  2611  000936  B0D8               	btfsc	status,0,c
  2612  000938  D013               	goto	l2367
  2613                           
  2614                           ; BSR set to: 0
  2615  00093A  0100               	movlb	0	; () banked
  2616  00093C  51BF               	movf	___ftadd@exp2& (0+255),w,b
  2617  00093E  0800               	sublw	0
  2618  000940  0100               	movlb	0	; () banked
  2619  000942  25C0               	addwf	___ftadd@exp1& (0+255),w,b
  2620  000944  0100               	movlb	0	; () banked
  2621  000946  6FBB               	movwf	??___ftadd& (0+255),b
  2622  000948  0E19               	movlw	25
  2623  00094A  0100               	movlb	0	; () banked
  2624  00094C  5DBB               	subwf	??___ftadd& (0+255),w,b
  2625  00094E  A0D8               	btfss	status,0,c
  2626  000950  D007               	goto	l2367
  2627  000952                     l579:
  2628                           
  2629                           ; BSR set to: 0
  2630  000952  C0B5  F0B5         	movff	___ftadd@f1,?___ftadd
  2631  000956  C0B6  F0B6         	movff	___ftadd@f1+1,?___ftadd+1
  2632  00095A  C0B7  F0B7         	movff	___ftadd@f1+2,?___ftadd+2
  2633  00095E  D0E5               	goto	l576
  2634  000960                     l2367:
  2635                           
  2636                           ; BSR set to: 0
  2637  000960  0E06               	movlw	6
  2638  000962  0100               	movlb	0	; () banked
  2639  000964  6FBE               	movwf	___ftadd@sign& (0+255),b
  2640                           
  2641                           ; BSR set to: 0
  2642  000966  0100               	movlb	0	; () banked
  2643  000968  AFB7               	btfss	(___ftadd@f1+2)& (0+255),7,b
  2644  00096A  D002               	goto	l2373
  2645                           
  2646                           ; BSR set to: 0
  2647  00096C  0100               	movlb	0	; () banked
  2648  00096E  8FBE               	bsf	___ftadd@sign& (0+255),7,b
  2649  000970                     l2373:
  2650                           
  2651                           ; BSR set to: 0
  2652  000970  0100               	movlb	0	; () banked
  2653  000972  AFBA               	btfss	(___ftadd@f2+2)& (0+255),7,b
  2654  000974  D002               	goto	l581
  2655                           
  2656                           ; BSR set to: 0
  2657  000976  0100               	movlb	0	; () banked
  2658  000978  8DBE               	bsf	___ftadd@sign& (0+255),6,b
  2659  00097A                     l581:
  2660                           
  2661                           ; BSR set to: 0
  2662  00097A  0100               	movlb	0	; () banked
  2663  00097C  8FB6               	bsf	(___ftadd@f1+1)& (0+255),7,b
  2664                           
  2665                           ; BSR set to: 0
  2666  00097E  0EFF               	movlw	255
  2667  000980  0100               	movlb	0	; () banked
  2668  000982  17B5               	andwf	___ftadd@f1& (0+255),f,b
  2669  000984  0EFF               	movlw	255
  2670  000986  0100               	movlb	0	; () banked
  2671  000988  17B6               	andwf	(___ftadd@f1+1)& (0+255),f,b
  2672  00098A  0E00               	movlw	0
  2673  00098C  0100               	movlb	0	; () banked
  2674  00098E  17B7               	andwf	(___ftadd@f1+2)& (0+255),f,b
  2675  000990  0100               	movlb	0	; () banked
  2676  000992  8FB9               	bsf	(___ftadd@f2+1)& (0+255),7,b
  2677                           
  2678                           ; BSR set to: 0
  2679  000994  0EFF               	movlw	255
  2680  000996  0100               	movlb	0	; () banked
  2681  000998  17B8               	andwf	___ftadd@f2& (0+255),f,b
  2682  00099A  0EFF               	movlw	255
  2683  00099C  0100               	movlb	0	; () banked
  2684  00099E  17B9               	andwf	(___ftadd@f2+1)& (0+255),f,b
  2685  0009A0  0E00               	movlw	0
  2686  0009A2  0100               	movlb	0	; () banked
  2687  0009A4  17BA               	andwf	(___ftadd@f2+2)& (0+255),f,b
  2688                           
  2689                           ; BSR set to: 0
  2690  0009A6  0100               	movlb	0	; () banked
  2691  0009A8  51BF               	movf	___ftadd@exp2& (0+255),w,b
  2692  0009AA  0100               	movlb	0	; () banked
  2693  0009AC  5DC0               	subwf	___ftadd@exp1& (0+255),w,b
  2694  0009AE  B0D8               	btfsc	status,0,c
  2695  0009B0  D02A               	goto	l2393
  2696  0009B2                     l2383:
  2697                           
  2698                           ; BSR set to: 0
  2699  0009B2  0100               	movlb	0	; () banked
  2700  0009B4  90D8               	bcf	status,0,c
  2701  0009B6  0100               	movlb	0	; () banked
  2702  0009B8  37B8               	rlcf	___ftadd@f2& (0+255),f,b
  2703  0009BA  0100               	movlb	0	; () banked
  2704  0009BC  37B9               	rlcf	(___ftadd@f2+1)& (0+255),f,b
  2705  0009BE  0100               	movlb	0	; () banked
  2706  0009C0  37BA               	rlcf	(___ftadd@f2+2)& (0+255),f,b
  2707  0009C2  0100               	movlb	0	; () banked
  2708  0009C4  07BF               	decf	___ftadd@exp2& (0+255),f,b
  2709                           
  2710                           ; BSR set to: 0
  2711  0009C6  0100               	movlb	0	; () banked
  2712  0009C8  51BF               	movf	___ftadd@exp2& (0+255),w,b
  2713  0009CA  0100               	movlb	0	; () banked
  2714  0009CC  19C0               	xorwf	___ftadd@exp1& (0+255),w,b
  2715  0009CE  B4D8               	btfsc	status,2,c
  2716  0009D0  D014               	goto	l2391
  2717                           
  2718                           ; BSR set to: 0
  2719  0009D2  0100               	movlb	0	; () banked
  2720  0009D4  07BE               	decf	___ftadd@sign& (0+255),f,b
  2721  0009D6  C0BE  F0BB         	movff	___ftadd@sign,??___ftadd
  2722  0009DA  0E07               	movlw	7
  2723  0009DC  0100               	movlb	0	; () banked
  2724  0009DE  17BB               	andwf	??___ftadd& (0+255),f,b
  2725  0009E0  B4D8               	btfsc	status,2,c
  2726  0009E2  D00B               	goto	l2391
  2727  0009E4  D7E6               	goto	l2383
  2728  0009E6                     l2389:
  2729                           
  2730                           ; BSR set to: 0
  2731  0009E6  0100               	movlb	0	; () banked
  2732  0009E8  90D8               	bcf	status,0,c
  2733  0009EA  0100               	movlb	0	; () banked
  2734  0009EC  33B7               	rrcf	(___ftadd@f1+2)& (0+255),f,b
  2735  0009EE  0100               	movlb	0	; () banked
  2736  0009F0  33B6               	rrcf	(___ftadd@f1+1)& (0+255),f,b
  2737  0009F2  0100               	movlb	0	; () banked
  2738  0009F4  33B5               	rrcf	___ftadd@f1& (0+255),f,b
  2739  0009F6  0100               	movlb	0	; () banked
  2740  0009F8  2BC0               	incf	___ftadd@exp1& (0+255),f,b
  2741  0009FA                     l2391:
  2742                           
  2743                           ; BSR set to: 0
  2744  0009FA  0100               	movlb	0	; () banked
  2745  0009FC  51BF               	movf	___ftadd@exp2& (0+255),w,b
  2746  0009FE  0100               	movlb	0	; () banked
  2747  000A00  63C0               	cpfseq	___ftadd@exp1& (0+255),b
  2748  000A02  D7F1               	goto	l2389
  2749  000A04  D02F               	goto	l590
  2750  000A06                     l2393:
  2751                           
  2752                           ; BSR set to: 0
  2753  000A06  0100               	movlb	0	; () banked
  2754  000A08  51C0               	movf	___ftadd@exp1& (0+255),w,b
  2755  000A0A  0100               	movlb	0	; () banked
  2756  000A0C  5DBF               	subwf	___ftadd@exp2& (0+255),w,b
  2757  000A0E  B0D8               	btfsc	status,0,c
  2758  000A10  D029               	goto	l590
  2759  000A12                     l2395:
  2760                           
  2761                           ; BSR set to: 0
  2762  000A12  0100               	movlb	0	; () banked
  2763  000A14  90D8               	bcf	status,0,c
  2764  000A16  0100               	movlb	0	; () banked
  2765  000A18  37B5               	rlcf	___ftadd@f1& (0+255),f,b
  2766  000A1A  0100               	movlb	0	; () banked
  2767  000A1C  37B6               	rlcf	(___ftadd@f1+1)& (0+255),f,b
  2768  000A1E  0100               	movlb	0	; () banked
  2769  000A20  37B7               	rlcf	(___ftadd@f1+2)& (0+255),f,b
  2770  000A22  0100               	movlb	0	; () banked
  2771  000A24  07C0               	decf	___ftadd@exp1& (0+255),f,b
  2772                           
  2773                           ; BSR set to: 0
  2774  000A26  0100               	movlb	0	; () banked
  2775  000A28  51BF               	movf	___ftadd@exp2& (0+255),w,b
  2776  000A2A  0100               	movlb	0	; () banked
  2777  000A2C  19C0               	xorwf	___ftadd@exp1& (0+255),w,b
  2778  000A2E  B4D8               	btfsc	status,2,c
  2779  000A30  D014               	goto	l2403
  2780                           
  2781                           ; BSR set to: 0
  2782  000A32  0100               	movlb	0	; () banked
  2783  000A34  07BE               	decf	___ftadd@sign& (0+255),f,b
  2784  000A36  C0BE  F0BB         	movff	___ftadd@sign,??___ftadd
  2785  000A3A  0E07               	movlw	7
  2786  000A3C  0100               	movlb	0	; () banked
  2787  000A3E  17BB               	andwf	??___ftadd& (0+255),f,b
  2788  000A40  B4D8               	btfsc	status,2,c
  2789  000A42  D00B               	goto	l2403
  2790  000A44  D7E6               	goto	l2395
  2791  000A46                     l2401:
  2792                           
  2793                           ; BSR set to: 0
  2794  000A46  0100               	movlb	0	; () banked
  2795  000A48  90D8               	bcf	status,0,c
  2796  000A4A  0100               	movlb	0	; () banked
  2797  000A4C  33BA               	rrcf	(___ftadd@f2+2)& (0+255),f,b
  2798  000A4E  0100               	movlb	0	; () banked
  2799  000A50  33B9               	rrcf	(___ftadd@f2+1)& (0+255),f,b
  2800  000A52  0100               	movlb	0	; () banked
  2801  000A54  33B8               	rrcf	___ftadd@f2& (0+255),f,b
  2802  000A56  0100               	movlb	0	; () banked
  2803  000A58  2BBF               	incf	___ftadd@exp2& (0+255),f,b
  2804  000A5A                     l2403:
  2805                           
  2806                           ; BSR set to: 0
  2807  000A5A  0100               	movlb	0	; () banked
  2808  000A5C  51BF               	movf	___ftadd@exp2& (0+255),w,b
  2809  000A5E  0100               	movlb	0	; () banked
  2810  000A60  63C0               	cpfseq	___ftadd@exp1& (0+255),b
  2811  000A62  D7F1               	goto	l2401
  2812  000A64                     l590:
  2813                           
  2814                           ; BSR set to: 0
  2815  000A64  0100               	movlb	0	; () banked
  2816  000A66  AFBE               	btfss	___ftadd@sign& (0+255),7,b
  2817  000A68  D012               	goto	l599
  2818                           
  2819                           ; BSR set to: 0
  2820  000A6A  0EFF               	movlw	255
  2821  000A6C  0100               	movlb	0	; () banked
  2822  000A6E  1BB5               	xorwf	___ftadd@f1& (0+255),f,b
  2823  000A70  0EFF               	movlw	255
  2824  000A72  0100               	movlb	0	; () banked
  2825  000A74  1BB6               	xorwf	(___ftadd@f1+1)& (0+255),f,b
  2826  000A76  0EFF               	movlw	255
  2827  000A78  0100               	movlb	0	; () banked
  2828  000A7A  1BB7               	xorwf	(___ftadd@f1+2)& (0+255),f,b
  2829  000A7C  0E01               	movlw	1
  2830  000A7E  0100               	movlb	0	; () banked
  2831  000A80  27B5               	addwf	___ftadd@f1& (0+255),f,b
  2832  000A82  0E00               	movlw	0
  2833  000A84  0100               	movlb	0	; () banked
  2834  000A86  23B6               	addwfc	(___ftadd@f1+1)& (0+255),f,b
  2835  000A88  0E00               	movlw	0
  2836  000A8A  0100               	movlb	0	; () banked
  2837  000A8C  23B7               	addwfc	(___ftadd@f1+2)& (0+255),f,b
  2838  000A8E                     l599:
  2839                           
  2840                           ; BSR set to: 0
  2841  000A8E  0100               	movlb	0	; () banked
  2842  000A90  ADBE               	btfss	___ftadd@sign& (0+255),6,b
  2843  000A92  D012               	goto	l2409
  2844                           
  2845                           ; BSR set to: 0
  2846  000A94  0EFF               	movlw	255
  2847  000A96  0100               	movlb	0	; () banked
  2848  000A98  1BB8               	xorwf	___ftadd@f2& (0+255),f,b
  2849  000A9A  0EFF               	movlw	255
  2850  000A9C  0100               	movlb	0	; () banked
  2851  000A9E  1BB9               	xorwf	(___ftadd@f2+1)& (0+255),f,b
  2852  000AA0  0EFF               	movlw	255
  2853  000AA2  0100               	movlb	0	; () banked
  2854  000AA4  1BBA               	xorwf	(___ftadd@f2+2)& (0+255),f,b
  2855  000AA6  0E01               	movlw	1
  2856  000AA8  0100               	movlb	0	; () banked
  2857  000AAA  27B8               	addwf	___ftadd@f2& (0+255),f,b
  2858  000AAC  0E00               	movlw	0
  2859  000AAE  0100               	movlb	0	; () banked
  2860  000AB0  23B9               	addwfc	(___ftadd@f2+1)& (0+255),f,b
  2861  000AB2  0E00               	movlw	0
  2862  000AB4  0100               	movlb	0	; () banked
  2863  000AB6  23BA               	addwfc	(___ftadd@f2+2)& (0+255),f,b
  2864  000AB8                     l2409:
  2865                           
  2866                           ; BSR set to: 0
  2867  000AB8  0E00               	movlw	0
  2868  000ABA  0100               	movlb	0	; () banked
  2869  000ABC  6FBE               	movwf	___ftadd@sign& (0+255),b
  2870                           
  2871                           ; BSR set to: 0
  2872  000ABE  0100               	movlb	0	; () banked
  2873  000AC0  51B5               	movf	___ftadd@f1& (0+255),w,b
  2874  000AC2  0100               	movlb	0	; () banked
  2875  000AC4  27B8               	addwf	___ftadd@f2& (0+255),f,b
  2876  000AC6  0100               	movlb	0	; () banked
  2877  000AC8  51B6               	movf	(___ftadd@f1+1)& (0+255),w,b
  2878  000ACA  0100               	movlb	0	; () banked
  2879  000ACC  23B9               	addwfc	(___ftadd@f2+1)& (0+255),f,b
  2880  000ACE  0100               	movlb	0	; () banked
  2881  000AD0  51B7               	movf	(___ftadd@f1+2)& (0+255),w,b
  2882  000AD2  0100               	movlb	0	; () banked
  2883  000AD4  23BA               	addwfc	(___ftadd@f2+2)& (0+255),f,b
  2884                           
  2885                           ; BSR set to: 0
  2886  000AD6  0100               	movlb	0	; () banked
  2887  000AD8  AFBA               	btfss	(___ftadd@f2+2)& (0+255),7,b
  2888  000ADA  D015               	goto	l2419
  2889                           
  2890                           ; BSR set to: 0
  2891  000ADC  0EFF               	movlw	255
  2892  000ADE  0100               	movlb	0	; () banked
  2893  000AE0  1BB8               	xorwf	___ftadd@f2& (0+255),f,b
  2894  000AE2  0EFF               	movlw	255
  2895  000AE4  0100               	movlb	0	; () banked
  2896  000AE6  1BB9               	xorwf	(___ftadd@f2+1)& (0+255),f,b
  2897  000AE8  0EFF               	movlw	255
  2898  000AEA  0100               	movlb	0	; () banked
  2899  000AEC  1BBA               	xorwf	(___ftadd@f2+2)& (0+255),f,b
  2900  000AEE  0E01               	movlw	1
  2901  000AF0  0100               	movlb	0	; () banked
  2902  000AF2  27B8               	addwf	___ftadd@f2& (0+255),f,b
  2903  000AF4  0E00               	movlw	0
  2904  000AF6  0100               	movlb	0	; () banked
  2905  000AF8  23B9               	addwfc	(___ftadd@f2+1)& (0+255),f,b
  2906  000AFA  0E00               	movlw	0
  2907  000AFC  0100               	movlb	0	; () banked
  2908  000AFE  23BA               	addwfc	(___ftadd@f2+2)& (0+255),f,b
  2909                           
  2910                           ; BSR set to: 0
  2911  000B00  0E01               	movlw	1
  2912  000B02  0100               	movlb	0	; () banked
  2913  000B04  6FBE               	movwf	___ftadd@sign& (0+255),b
  2914  000B06                     l2419:
  2915                           
  2916                           ; BSR set to: 0
  2917  000B06  C0B8  F09F         	movff	___ftadd@f2,___ftpack@arg
  2918  000B0A  C0B9  F0A0         	movff	___ftadd@f2+1,___ftpack@arg+1
  2919  000B0E  C0BA  F0A1         	movff	___ftadd@f2+2,___ftpack@arg+2
  2920  000B12  C0C0  F0A2         	movff	___ftadd@exp1,___ftpack@exp
  2921  000B16  C0BE  F0A3         	movff	___ftadd@sign,___ftpack@sign
  2922  000B1A  EC38  F00A         	call	___ftpack	;wreg free
  2923  000B1E  C09F  F0B5         	movff	?___ftpack,?___ftadd
  2924  000B22  C0A0  F0B6         	movff	?___ftpack+1,?___ftadd+1
  2925  000B26  C0A1  F0B7         	movff	?___ftpack+2,?___ftadd+2
  2926  000B2A                     l576:
  2927  000B2A  0012               	return	
  2928  000B2C  FFFF               	dw	65535	; errata NOP
  2929  000B2E                     __end_of___ftadd:
  2930                           	opt stack 0
  2931                           tblptru	equ	0xFF8
  2932                           tblptrh	equ	0xFF7
  2933                           tblptrl	equ	0xFF6
  2934                           tablat	equ	0xFF5
  2935                           postinc0	equ	0xFEE
  2936                           wreg	equ	0xFE8
  2937                           postinc1	equ	0xFE6
  2938                           postdec1	equ	0xFE5
  2939                           fsr1l	equ	0xFE1
  2940                           indf2	equ	0xFDF
  2941                           postinc2	equ	0xFDE
  2942                           fsr2h	equ	0xFDA
  2943                           fsr2l	equ	0xFD9
  2944                           status	equ	0xFD8
  2945                           
  2946 ;; *************** function ___awtoft *****************
  2947 ;; Defined at:
  2948 ;;		line 32 in file "/Applications/microchip/xc8/v1.33/sources/common/awtoft.c"
  2949 ;; Parameters:    Size  Location     Type
  2950 ;;  c               2   46[BANK0 ] int 
  2951 ;; Auto vars:     Size  Location     Type
  2952 ;;  sign            1   49[BANK0 ] unsigned char 
  2953 ;; Return value:  Size  Location     Type
  2954 ;;                  3   46[BANK0 ] float 
  2955 ;; Registers used:
  2956 ;;		wreg, status,2, status,0, prodl, cstack
  2957 ;; Tracked objects:
  2958 ;;		On entry : 0/0
  2959 ;;		On exit  : 0/0
  2960 ;;		Unchanged: 0/0
  2961 ;; Data sizes:     COMRAM   BANK0   BANK1   BANK2   BANK3   BANK4   BANK5
  2962 ;;      Params:         0       3       0       0       0       0       0
  2963 ;;      Locals:         0       1       0       0       0       0       0
  2964 ;;      Temps:          0       0       0       0       0       0       0
  2965 ;;      Totals:         0       4       0       0       0       0       0
  2966 ;;Total ram usage:        4 bytes
  2967 ;; Hardware stack levels used:    1
  2968 ;; Hardware stack levels required when called:    7
  2969 ;; This function calls:
  2970 ;;		___ftpack
  2971 ;; This function is called by:
  2972 ;;		_WriteLCD
  2973 ;; This function uses a non-reentrant model
  2974 ;;
  2975                           
  2976                           	psect	text9
  2977  0018F2                     __ptext9:
  2978                           	opt stack 0
  2979  0018F2                     ___awtoft:
  2980                           	opt stack 22
  2981                           
  2982                           ;incstack = 0
  2983  0018F2  FFFF               	dw	65535
  2984  0018F4  0E00               	movlw	0
  2985  0018F6  0100               	movlb	0	; () banked
  2986  0018F8  6FB1               	movwf	___awtoft@sign& (0+255),b
  2987                           
  2988                           ; BSR set to: 0
  2989  0018FA  0100               	movlb	0	; () banked
  2990  0018FC  51AF               	movf	(___awtoft@c+1)& (0+255),w,b
  2991  0018FE  0A80               	xorlw	128
  2992  001900  6EF3               	movwf	prodl,c
  2993  001902  0E80               	movlw	128
  2994  001904  5CF3               	subwf	prodl,w,c
  2995  001906  0E00               	movlw	0
  2996  001908  B4D8               	btfsc	status,2,c
  2997  00190A  5DAE               	subwf	___awtoft@c& (0+255),w,b
  2998  00190C  B0D8               	btfsc	status,0,c
  2999  00190E  D009               	goto	l2525
  3000                           
  3001                           ; BSR set to: 0
  3002  001910  0100               	movlb	0	; () banked
  3003  001912  6DAE               	negf	___awtoft@c& (0+255),b
  3004  001914  0100               	movlb	0	; () banked
  3005  001916  1FAF               	comf	(___awtoft@c+1)& (0+255),f,b
  3006  001918  B0D8               	btfsc	status,0,c
  3007  00191A  2BAF               	incf	(___awtoft@c+1)& (0+255),f,b
  3008                           
  3009                           ; BSR set to: 0
  3010  00191C  0E01               	movlw	1
  3011  00191E  0100               	movlb	0	; () banked
  3012  001920  6FB1               	movwf	___awtoft@sign& (0+255),b
  3013  001922                     l2525:
  3014                           
  3015                           ; BSR set to: 0
  3016  001922  0100               	movlb	0	; () banked
  3017  001924  C0AE  F09F         	movff	___awtoft@c,___ftpack@arg
  3018  001928  0100               	movlb	0	; () banked
  3019  00192A  C0AF  F0A0         	movff	___awtoft@c+1,___ftpack@arg+1
  3020  00192E  0100               	movlb	0	; () banked
  3021  001930  6BA1               	clrf	(___ftpack@arg+2)& (0+255),b
  3022  001932  0E8E               	movlw	142
  3023  001934  0100               	movlb	0	; () banked
  3024  001936  6FA2               	movwf	___ftpack@exp& (0+255),b
  3025  001938  C0B1  F0A3         	movff	___awtoft@sign,___ftpack@sign
  3026  00193C  EC38  F00A         	call	___ftpack	;wreg free
  3027  001940  C09F  F0AE         	movff	?___ftpack,?___awtoft
  3028  001944  C0A0  F0AF         	movff	?___ftpack+1,?___awtoft+1
  3029  001948  C0A1  F0B0         	movff	?___ftpack+2,?___awtoft+2
  3030  00194C  0012               	return	
  3031  00194E  FFFF               	dw	65535	; errata NOP
  3032  001950                     __end_of___awtoft:
  3033                           	opt stack 0
  3034                           tblptru	equ	0xFF8
  3035                           tblptrh	equ	0xFF7
  3036                           tblptrl	equ	0xFF6
  3037                           tablat	equ	0xFF5
  3038                           prodl	equ	0xFF3
  3039                           postinc0	equ	0xFEE
  3040                           wreg	equ	0xFE8
  3041                           postinc1	equ	0xFE6
  3042                           postdec1	equ	0xFE5
  3043                           fsr1l	equ	0xFE1
  3044                           indf2	equ	0xFDF
  3045                           postinc2	equ	0xFDE
  3046                           fsr2h	equ	0xFDA
  3047                           fsr2l	equ	0xFD9
  3048                           status	equ	0xFD8
  3049                           
  3050 ;; *************** function ___ftpack *****************
  3051 ;; Defined at:
  3052 ;;		line 62 in file "/Applications/microchip/xc8/v1.33/sources/common/float.c"
  3053 ;; Parameters:    Size  Location     Type
  3054 ;;  arg             3   31[BANK0 ] unsigned um
  3055 ;;  exp             1   34[BANK0 ] unsigned char 
  3056 ;;  sign            1   35[BANK0 ] unsigned char 
  3057 ;; Auto vars:     Size  Location     Type
  3058 ;;		None
  3059 ;; Return value:  Size  Location     Type
  3060 ;;                  3   31[BANK0 ] float 
  3061 ;; Registers used:
  3062 ;;		wreg, status,2, status,0
  3063 ;; Tracked objects:
  3064 ;;		On entry : 0/0
  3065 ;;		On exit  : 0/0
  3066 ;;		Unchanged: 0/0
  3067 ;; Data sizes:     COMRAM   BANK0   BANK1   BANK2   BANK3   BANK4   BANK5
  3068 ;;      Params:         0       5       0       0       0       0       0
  3069 ;;      Locals:         0       0       0       0       0       0       0
  3070 ;;      Temps:          0       3       0       0       0       0       0
  3071 ;;      Totals:         0       8       0       0       0       0       0
  3072 ;;Total ram usage:        8 bytes
  3073 ;; Hardware stack levels used:    1
  3074 ;; Hardware stack levels required when called:    6
  3075 ;; This function calls:
  3076 ;;		Nothing
  3077 ;; This function is called by:
  3078 ;;		___awtoft
  3079 ;;		___ftadd
  3080 ;;		___ftdiv
  3081 ;;		___ftmul
  3082 ;; This function uses a non-reentrant model
  3083 ;;
  3084                           
  3085                           	psect	text10
  3086  001470                     __ptext10:
  3087                           	opt stack 0
  3088  001470                     ___ftpack:
  3089                           	opt stack 22
  3090                           
  3091                           ;incstack = 0
  3092  001470  FFFF               	dw	65535
  3093  001472  0100               	movlb	0	; () banked
  3094  001474  51A2               	movf	___ftpack@exp& (0+255),w,b
  3095  001476  B4D8               	btfsc	status,2,c
  3096  001478  D008               	goto	l2261
  3097                           
  3098                           ; BSR set to: 0
  3099  00147A  0100               	movlb	0	; () banked
  3100  00147C  519F               	movf	___ftpack@arg& (0+255),w,b
  3101  00147E  0100               	movlb	0	; () banked
  3102  001480  11A0               	iorwf	(___ftpack@arg+1)& (0+255),w,b
  3103  001482  0100               	movlb	0	; () banked
  3104  001484  11A1               	iorwf	(___ftpack@arg+2)& (0+255),w,b
  3105  001486  A4D8               	btfss	status,2,c
  3106  001488  D014               	goto	l2267
  3107  00148A                     l2261:
  3108                           
  3109                           ; BSR set to: 0
  3110  00148A  0E00               	movlw	0
  3111  00148C  0100               	movlb	0	; () banked
  3112  00148E  6F9F               	movwf	?___ftpack& (0+255),b
  3113  001490  0E00               	movlw	0
  3114  001492  0100               	movlb	0	; () banked
  3115  001494  6FA0               	movwf	(?___ftpack+1)& (0+255),b
  3116  001496  0E00               	movlw	0
  3117  001498  0100               	movlb	0	; () banked
  3118  00149A  6FA1               	movwf	(?___ftpack+2)& (0+255),b
  3119  00149C  D06E               	goto	l538
  3120  00149E                     l2265:
  3121                           
  3122                           ; BSR set to: 0
  3123  00149E  0100               	movlb	0	; () banked
  3124  0014A0  2BA2               	incf	___ftpack@exp& (0+255),f,b
  3125  0014A2  0100               	movlb	0	; () banked
  3126  0014A4  90D8               	bcf	status,0,c
  3127  0014A6  0100               	movlb	0	; () banked
  3128  0014A8  33A1               	rrcf	(___ftpack@arg+2)& (0+255),f,b
  3129  0014AA  0100               	movlb	0	; () banked
  3130  0014AC  33A0               	rrcf	(___ftpack@arg+1)& (0+255),f,b
  3131  0014AE  0100               	movlb	0	; () banked
  3132  0014B0  339F               	rrcf	___ftpack@arg& (0+255),f,b
  3133  0014B2                     l2267:
  3134                           
  3135                           ; BSR set to: 0
  3136  0014B2  0E00               	movlw	0
  3137  0014B4  0100               	movlb	0	; () banked
  3138  0014B6  159F               	andwf	___ftpack@arg& (0+255),w,b
  3139  0014B8  0100               	movlb	0	; () banked
  3140  0014BA  6FA4               	movwf	??___ftpack& (0+255),b
  3141  0014BC  0E00               	movlw	0
  3142  0014BE  0100               	movlb	0	; () banked
  3143  0014C0  15A0               	andwf	(___ftpack@arg+1)& (0+255),w,b
  3144  0014C2  0100               	movlb	0	; () banked
  3145  0014C4  6FA5               	movwf	(??___ftpack+1)& (0+255),b
  3146  0014C6  0EFE               	movlw	254
  3147  0014C8  0100               	movlb	0	; () banked
  3148  0014CA  15A1               	andwf	(___ftpack@arg+2)& (0+255),w,b
  3149  0014CC  0100               	movlb	0	; () banked
  3150  0014CE  6FA6               	movwf	(??___ftpack+2)& (0+255),b
  3151  0014D0  0100               	movlb	0	; () banked
  3152  0014D2  51A4               	movf	??___ftpack& (0+255),w,b
  3153  0014D4  11A5               	iorwf	(??___ftpack+1)& (0+255),w,b
  3154  0014D6  11A6               	iorwf	(??___ftpack+2)& (0+255),w,b
  3155  0014D8  B4D8               	btfsc	status,2,c
  3156  0014DA  D014               	goto	l2273
  3157  0014DC  D7E0               	goto	l2265
  3158  0014DE                     l2269:
  3159                           
  3160                           ; BSR set to: 0
  3161  0014DE  0100               	movlb	0	; () banked
  3162  0014E0  2BA2               	incf	___ftpack@exp& (0+255),f,b
  3163                           
  3164                           ; BSR set to: 0
  3165  0014E2  0E01               	movlw	1
  3166  0014E4  0100               	movlb	0	; () banked
  3167  0014E6  279F               	addwf	___ftpack@arg& (0+255),f,b
  3168  0014E8  0E00               	movlw	0
  3169  0014EA  0100               	movlb	0	; () banked
  3170  0014EC  23A0               	addwfc	(___ftpack@arg+1)& (0+255),f,b
  3171  0014EE  0E00               	movlw	0
  3172  0014F0  0100               	movlb	0	; () banked
  3173  0014F2  23A1               	addwfc	(___ftpack@arg+2)& (0+255),f,b
  3174  0014F4  0100               	movlb	0	; () banked
  3175  0014F6  90D8               	bcf	status,0,c
  3176  0014F8  0100               	movlb	0	; () banked
  3177  0014FA  33A1               	rrcf	(___ftpack@arg+2)& (0+255),f,b
  3178  0014FC  0100               	movlb	0	; () banked
  3179  0014FE  33A0               	rrcf	(___ftpack@arg+1)& (0+255),f,b
  3180  001500  0100               	movlb	0	; () banked
  3181  001502  339F               	rrcf	___ftpack@arg& (0+255),f,b
  3182  001504                     l2273:
  3183                           
  3184                           ; BSR set to: 0
  3185  001504  0E00               	movlw	0
  3186  001506  0100               	movlb	0	; () banked
  3187  001508  159F               	andwf	___ftpack@arg& (0+255),w,b
  3188  00150A  0100               	movlb	0	; () banked
  3189  00150C  6FA4               	movwf	??___ftpack& (0+255),b
  3190  00150E  0E00               	movlw	0
  3191  001510  0100               	movlb	0	; () banked
  3192  001512  15A0               	andwf	(___ftpack@arg+1)& (0+255),w,b
  3193  001514  0100               	movlb	0	; () banked
  3194  001516  6FA5               	movwf	(??___ftpack+1)& (0+255),b
  3195  001518  0EFF               	movlw	255
  3196  00151A  0100               	movlb	0	; () banked
  3197  00151C  15A1               	andwf	(___ftpack@arg+2)& (0+255),w,b
  3198  00151E  0100               	movlb	0	; () banked
  3199  001520  6FA6               	movwf	(??___ftpack+2)& (0+255),b
  3200  001522  0100               	movlb	0	; () banked
  3201  001524  51A4               	movf	??___ftpack& (0+255),w,b
  3202  001526  11A5               	iorwf	(??___ftpack+1)& (0+255),w,b
  3203  001528  11A6               	iorwf	(??___ftpack+2)& (0+255),w,b
  3204  00152A  B4D8               	btfsc	status,2,c
  3205  00152C  D00B               	goto	l2277
  3206  00152E  D7D7               	goto	l2269
  3207  001530                     l2275:
  3208                           
  3209                           ; BSR set to: 0
  3210  001530  0100               	movlb	0	; () banked
  3211  001532  07A2               	decf	___ftpack@exp& (0+255),f,b
  3212  001534  0100               	movlb	0	; () banked
  3213  001536  90D8               	bcf	status,0,c
  3214  001538  0100               	movlb	0	; () banked
  3215  00153A  379F               	rlcf	___ftpack@arg& (0+255),f,b
  3216  00153C  0100               	movlb	0	; () banked
  3217  00153E  37A0               	rlcf	(___ftpack@arg+1)& (0+255),f,b
  3218  001540  0100               	movlb	0	; () banked
  3219  001542  37A1               	rlcf	(___ftpack@arg+2)& (0+255),f,b
  3220  001544                     l2277:
  3221                           
  3222                           ; BSR set to: 0
  3223  001544  0100               	movlb	0	; () banked
  3224  001546  AFA0               	btfss	(___ftpack@arg+1)& (0+255),7,b
  3225  001548  D7F3               	goto	l2275
  3226                           
  3227                           ; BSR set to: 0
  3228  00154A  0100               	movlb	0	; () banked
  3229  00154C  B1A2               	btfsc	___ftpack@exp& (0+255),0,b
  3230  00154E  D002               	goto	l2281
  3231                           
  3232                           ; BSR set to: 0
  3233  001550  0100               	movlb	0	; () banked
  3234  001552  9FA0               	bcf	(___ftpack@arg+1)& (0+255),7,b
  3235  001554                     l2281:
  3236                           
  3237                           ; BSR set to: 0
  3238  001554  0100               	movlb	0	; () banked
  3239  001556  90D8               	bcf	status,0,c
  3240  001558  33A2               	rrcf	___ftpack@exp& (0+255),f,b
  3241  00155A  0100               	movlb	0	; () banked
  3242  00155C  51A2               	movf	___ftpack@exp& (0+255),w,b
  3243  00155E  0100               	movlb	0	; () banked
  3244  001560  13A1               	iorwf	(___ftpack@arg+2)& (0+255),f,b
  3245                           
  3246                           ; BSR set to: 0
  3247  001562  0100               	movlb	0	; () banked
  3248  001564  51A3               	movf	___ftpack@sign& (0+255),w,b
  3249  001566  B4D8               	btfsc	status,2,c
  3250  001568  D002               	goto	l2287
  3251                           
  3252                           ; BSR set to: 0
  3253  00156A  0100               	movlb	0	; () banked
  3254  00156C  8FA1               	bsf	(___ftpack@arg+2)& (0+255),7,b
  3255  00156E                     l2287:
  3256                           
  3257                           ; BSR set to: 0
  3258  00156E  C09F  F09F         	movff	___ftpack@arg,?___ftpack
  3259  001572  C0A0  F0A0         	movff	___ftpack@arg+1,?___ftpack+1
  3260  001576  C0A1  F0A1         	movff	___ftpack@arg+2,?___ftpack+2
  3261  00157A                     l538:
  3262                           
  3263                           ; BSR set to: 0
  3264  00157A  0012               	return	
  3265  00157C  FFFF               	dw	65535	; errata NOP
  3266  00157E                     __end_of___ftpack:
  3267                           	opt stack 0
  3268                           tblptru	equ	0xFF8
  3269                           tblptrh	equ	0xFF7
  3270                           tblptrl	equ	0xFF6
  3271                           tablat	equ	0xFF5
  3272                           prodl	equ	0xFF3
  3273                           postinc0	equ	0xFEE
  3274                           wreg	equ	0xFE8
  3275                           postinc1	equ	0xFE6
  3276                           postdec1	equ	0xFE5
  3277                           fsr1l	equ	0xFE1
  3278                           indf2	equ	0xFDF
  3279                           postinc2	equ	0xFDE
  3280                           fsr2h	equ	0xFDA
  3281                           fsr2l	equ	0xFD9
  3282                           status	equ	0xFD8
  3283                           
  3284 ;; *************** function _DisplayLCD *****************
  3285 ;; Defined at:
  3286 ;;		line 74 in file "user.c"
  3287 ;; Parameters:    Size  Location     Type
  3288 ;;  tempPtr         2   32[BANK0 ] PTR unsigned char 
  3289 ;;		 -> Msg3(8), main@Msg2(5), main@Msg1(6), main@LCDinit(7), 
  3290 ;;  init            2   34[BANK0 ] int 
  3291 ;; Auto vars:     Size  Location     Type
  3292 ;;  currentChar     1   36[BANK0 ] unsigned char 
  3293 ;; Return value:  Size  Location     Type
  3294 ;;		None               void
  3295 ;; Registers used:
  3296 ;;		wreg, fsr2l, fsr2h, status,2, status,0, cstack
  3297 ;; Tracked objects:
  3298 ;;		On entry : 0/0
  3299 ;;		On exit  : 0/0
  3300 ;;		Unchanged: 0/0
  3301 ;; Data sizes:     COMRAM   BANK0   BANK1   BANK2   BANK3   BANK4   BANK5
  3302 ;;      Params:         0       4       0       0       0       0       0
  3303 ;;      Locals:         0       1       0       0       0       0       0
  3304 ;;      Temps:          0       0       0       0       0       0       0
  3305 ;;      Totals:         0       5       0       0       0       0       0
  3306 ;;Total ram usage:        5 bytes
  3307 ;; Hardware stack levels used:    1
  3308 ;; Hardware stack levels required when called:    7
  3309 ;; This function calls:
  3310 ;;		_Delay100TCYx
  3311 ;;		_Delay10TCYx
  3312 ;;		_Delay1KTCYx
  3313 ;; This function is called by:
  3314 ;;		_main
  3315 ;;		_WriteLCD
  3316 ;; This function uses a non-reentrant model
  3317 ;;
  3318                           
  3319                           	psect	text11
  3320  0017DC                     __ptext11:
  3321                           	opt stack 0
  3322  0017DC                     _DisplayLCD:
  3323                           	opt stack 22
  3324                           
  3325                           ; BSR set to: 0
  3326                           ;incstack = 0
  3327  0017DC  FFFF               	dw	65535
  3328                           
  3329                           ;user.c: 76: char currentChar;
  3330                           ;user.c: 80: if (init == 1)
  3331  0017DE  0100               	movlb	0	; () banked
  3332  0017E0  05A2               	decf	DisplayLCD@init& (0+255),w,b
  3333  0017E2  11A3               	iorwf	(DisplayLCD@init+1)& (0+255),w,b
  3334  0017E4  A4D8               	btfss	status,2,c
  3335  0017E6  D029               	goto	l145
  3336                           
  3337                           ; BSR set to: 0
  3338                           ;user.c: 81: {
  3339                           ;user.c: 82: Delay1KTCYx(250);
  3340  0017E8  0EFA               	movlw	250
  3341  0017EA  ECDA  F00D         	call	_Delay1KTCYx
  3342                           
  3343                           ;user.c: 83: PORTEbits.RE0 = 0;
  3344  0017EE  9084               	bcf	3972,0,c	;volatile
  3345                           
  3346                           ;user.c: 84: while (*tempPtr != 0)
  3347  0017F0  D01C               	goto	l2319
  3348  0017F2                     l2297:
  3349                           
  3350                           ;user.c: 85: {
  3351                           ;user.c: 86: currentChar = *tempPtr;
  3352  0017F2  C0A0  FFD9         	movff	DisplayLCD@tempPtr,fsr2l
  3353  0017F6  C0A1  FFDA         	movff	DisplayLCD@tempPtr+1,fsr2h
  3354  0017FA  50DF               	movf	indf2,w,c
  3355  0017FC  0100               	movlb	0	; () banked
  3356  0017FE  6FA4               	movwf	DisplayLCD@currentChar& (0+255),b
  3357                           
  3358                           ; BSR set to: 0
  3359                           ;user.c: 87: PORTEbits.RE1 = 1;
  3360  001800  8284               	bsf	3972,1,c	;volatile
  3361                           
  3362                           ; BSR set to: 0
  3363                           ;user.c: 88: PORTD = currentChar;
  3364  001802  C0A4  FF83         	movff	DisplayLCD@currentChar,3971	;volatile
  3365                           
  3366                           ; BSR set to: 0
  3367                           ;user.c: 89: PORTEbits.RE1 = 0;
  3368  001806  9284               	bcf	3972,1,c	;volatile
  3369                           
  3370                           ; BSR set to: 0
  3371                           ;user.c: 90: Delay100TCYx(250);
  3372  001808  0EFA               	movlw	250
  3373  00180A  ECCF  F00D         	call	_Delay100TCYx
  3374                           
  3375                           ;user.c: 91: currentChar <<= 4;
  3376  00180E  0100               	movlb	0	; () banked
  3377  001810  3BA4               	swapf	DisplayLCD@currentChar& (0+255),f,b
  3378  001812  0EF0               	movlw	240
  3379  001814  17A4               	andwf	DisplayLCD@currentChar& (0+255),f,b
  3380                           
  3381                           ; BSR set to: 0
  3382                           ;user.c: 92: PORTEbits.RE1 = 1;
  3383  001816  8284               	bsf	3972,1,c	;volatile
  3384                           
  3385                           ; BSR set to: 0
  3386                           ;user.c: 93: PORTD = currentChar;
  3387  001818  C0A4  FF83         	movff	DisplayLCD@currentChar,3971	;volatile
  3388                           
  3389                           ; BSR set to: 0
  3390                           ;user.c: 94: PORTEbits.RE1 = 0;
  3391  00181C  9284               	bcf	3972,1,c	;volatile
  3392                           
  3393                           ; BSR set to: 0
  3394                           ;user.c: 95: Delay100TCYx(250);
  3395  00181E  0EFA               	movlw	250
  3396  001820  ECCF  F00D         	call	_Delay100TCYx
  3397                           
  3398                           ;user.c: 96: tempPtr++;
  3399  001824  0100               	movlb	0	; () banked
  3400  001826  4BA0               	infsnz	DisplayLCD@tempPtr& (0+255),f,b
  3401  001828  2BA1               	incf	(DisplayLCD@tempPtr+1)& (0+255),f,b
  3402  00182A                     l2319:
  3403  00182A  C0A0  FFD9         	movff	DisplayLCD@tempPtr,fsr2l
  3404  00182E  C0A1  FFDA         	movff	DisplayLCD@tempPtr+1,fsr2h
  3405  001832  50DF               	movf	indf2,w,c
  3406  001834  B4D8               	btfsc	status,2,c
  3407  001836  D024               	goto	l153
  3408  001838  D7DC               	goto	l2297
  3409  00183A                     l145:
  3410                           
  3411                           ; BSR set to: 0
  3412                           ;user.c: 99: else
  3413                           ;user.c: 100: {
  3414                           ;user.c: 101: PORTEbits.RE0 = 0;
  3415  00183A  9084               	bcf	3972,0,c	;volatile
  3416                           
  3417                           ;user.c: 102: while (*tempPtr)
  3418  00183C  D01A               	goto	l2343
  3419  00183E                     l2321:
  3420                           
  3421                           ; BSR set to: 0
  3422                           ;user.c: 103: {
  3423                           ;user.c: 104: currentChar = *tempPtr;
  3424  00183E  C0A0  FFD9         	movff	DisplayLCD@tempPtr,fsr2l
  3425  001842  C0A1  FFDA         	movff	DisplayLCD@tempPtr+1,fsr2h
  3426  001846  50DF               	movf	indf2,w,c
  3427  001848  0100               	movlb	0	; () banked
  3428  00184A  6FA4               	movwf	DisplayLCD@currentChar& (0+255),b
  3429                           
  3430                           ; BSR set to: 0
  3431                           ;user.c: 105: PORTEbits.RE1 = 1;
  3432  00184C  8284               	bsf	3972,1,c	;volatile
  3433                           
  3434                           ; BSR set to: 0
  3435                           ;user.c: 106: PORTD = currentChar;
  3436  00184E  C0A4  FF83         	movff	DisplayLCD@currentChar,3971	;volatile
  3437                           
  3438                           ; BSR set to: 0
  3439                           ;user.c: 107: PORTEbits.RE1 = 0;
  3440  001852  9284               	bcf	3972,1,c	;volatile
  3441                           
  3442                           ; BSR set to: 0
  3443                           ;user.c: 108: currentChar <<= 4;
  3444  001854  0100               	movlb	0	; () banked
  3445  001856  3BA4               	swapf	DisplayLCD@currentChar& (0+255),f,b
  3446  001858  0EF0               	movlw	240
  3447  00185A  17A4               	andwf	DisplayLCD@currentChar& (0+255),f,b
  3448                           
  3449                           ; BSR set to: 0
  3450                           ;user.c: 109: PORTEbits.RE1 = 1;
  3451  00185C  8284               	bsf	3972,1,c	;volatile
  3452                           
  3453                           ; BSR set to: 0
  3454                           ;user.c: 110: PORTD = currentChar;
  3455  00185E  C0A4  FF83         	movff	DisplayLCD@currentChar,3971	;volatile
  3456                           
  3457                           ; BSR set to: 0
  3458                           ;user.c: 111: PORTEbits.RE1 = 0;
  3459  001862  9284               	bcf	3972,1,c	;volatile
  3460                           
  3461                           ; BSR set to: 0
  3462                           ;user.c: 112: Delay10TCYx(10);
  3463  001864  0E0A               	movlw	10
  3464  001866  ECB8  F00D         	call	_Delay10TCYx
  3465                           
  3466                           ;user.c: 113: PORTEbits.RE0 = 1;
  3467  00186A  8084               	bsf	3972,0,c	;volatile
  3468                           
  3469                           ;user.c: 114: tempPtr++;
  3470  00186C  0100               	movlb	0	; () banked
  3471  00186E  4BA0               	infsnz	DisplayLCD@tempPtr& (0+255),f,b
  3472  001870  2BA1               	incf	(DisplayLCD@tempPtr+1)& (0+255),f,b
  3473  001872                     l2343:
  3474                           
  3475                           ; BSR set to: 0
  3476  001872  C0A0  FFD9         	movff	DisplayLCD@tempPtr,fsr2l
  3477  001876  C0A1  FFDA         	movff	DisplayLCD@tempPtr+1,fsr2h
  3478  00187A  50DF               	movf	indf2,w,c
  3479  00187C  A4D8               	btfss	status,2,c
  3480  00187E  D7DF               	goto	l2321
  3481  001880                     l153:
  3482  001880  0012               	return	
  3483  001882  FFFF               	dw	65535	; errata NOP
  3484  001884                     __end_of_DisplayLCD:
  3485                           	opt stack 0
  3486                           tblptru	equ	0xFF8
  3487                           tblptrh	equ	0xFF7
  3488                           tblptrl	equ	0xFF6
  3489                           tablat	equ	0xFF5
  3490                           prodl	equ	0xFF3
  3491                           postinc0	equ	0xFEE
  3492                           wreg	equ	0xFE8
  3493                           postinc1	equ	0xFE6
  3494                           postdec1	equ	0xFE5
  3495                           fsr1l	equ	0xFE1
  3496                           indf2	equ	0xFDF
  3497                           postinc2	equ	0xFDE
  3498                           fsr2h	equ	0xFDA
  3499                           fsr2l	equ	0xFD9
  3500                           status	equ	0xFD8
  3501                           
  3502 ;; *************** function _Delay10TCYx *****************
  3503 ;; Defined at:
  3504 ;;		line 8 in file "/Applications/microchip/xc8/v1.33/sources/pic18/d10tcyx.c"
  3505 ;; Parameters:    Size  Location     Type
  3506 ;;  unit            1    wreg     unsigned char 
  3507 ;; Auto vars:     Size  Location     Type
  3508 ;;  unit            1   31[BANK0 ] unsigned char 
  3509 ;; Return value:  Size  Location     Type
  3510 ;;		None               void
  3511 ;; Registers used:
  3512 ;;		wreg
  3513 ;; Tracked objects:
  3514 ;;		On entry : 0/0
  3515 ;;		On exit  : 0/0
  3516 ;;		Unchanged: 0/0
  3517 ;; Data sizes:     COMRAM   BANK0   BANK1   BANK2   BANK3   BANK4   BANK5
  3518 ;;      Params:         0       0       0       0       0       0       0
  3519 ;;      Locals:         0       1       0       0       0       0       0
  3520 ;;      Temps:          0       0       0       0       0       0       0
  3521 ;;      Totals:         0       1       0       0       0       0       0
  3522 ;;Total ram usage:        1 bytes
  3523 ;; Hardware stack levels used:    1
  3524 ;; Hardware stack levels required when called:    6
  3525 ;; This function calls:
  3526 ;;		Nothing
  3527 ;; This function is called by:
  3528 ;;		_DisplayLCD
  3529 ;; This function uses a non-reentrant model
  3530 ;;
  3531                           
  3532                           	psect	text12
  3533  001B70                     __ptext12:
  3534                           	opt stack 0
  3535  001B70                     _Delay10TCYx:
  3536                           	opt stack 22
  3537                           
  3538                           ;incstack = 0
  3539  001B70  FFFF               	dw	65535
  3540                           
  3541                           ;Delay10TCYx@unit stored from wreg
  3542  001B72  0100               	movlb	0	; () banked
  3543  001B74  6F9F               	movwf	Delay10TCYx@unit& (0+255),b
  3544  001B76                     l437:
  3545                           
  3546                           ; BSR set to: 0
  3547                           
  3548                           ; BSR set to: 0
  3549  001B76  0E02               	movlw	2
  3550  001B78                     u2967:
  3551  001B78  F000               	nop	
  3552  001B7A  2EE8               	decfsz	wreg,f,c
  3553  001B7C  D7FD               	goto	u2967
  3554  001B7E  0100               	movlb	0	; () banked
  3555  001B80  2F9F               	decfsz	Delay10TCYx@unit& (0+255),f,b
  3556  001B82  D7F9               	goto	l437
  3557                           
  3558                           ; BSR set to: 0
  3559                           
  3560                           ; BSR set to: 0
  3561  001B84  0012               	return	
  3562  001B86  FFFF               	dw	65535	; errata NOP
  3563  001B88                     __end_of_Delay10TCYx:
  3564                           	opt stack 0
  3565                           tblptru	equ	0xFF8
  3566                           tblptrh	equ	0xFF7
  3567                           tblptrl	equ	0xFF6
  3568                           tablat	equ	0xFF5
  3569                           prodl	equ	0xFF3
  3570                           postinc0	equ	0xFEE
  3571                           wreg	equ	0xFE8
  3572                           postinc1	equ	0xFE6
  3573                           postdec1	equ	0xFE5
  3574                           fsr1l	equ	0xFE1
  3575                           indf2	equ	0xFDF
  3576                           postinc2	equ	0xFDE
  3577                           fsr2h	equ	0xFDA
  3578                           fsr2l	equ	0xFD9
  3579                           status	equ	0xFD8
  3580                           
  3581 ;; *************** function _Delay100TCYx *****************
  3582 ;; Defined at:
  3583 ;;		line 8 in file "/Applications/microchip/xc8/v1.33/sources/pic18/d100tcyx.c"
  3584 ;; Parameters:    Size  Location     Type
  3585 ;;  unit            1    wreg     unsigned char 
  3586 ;; Auto vars:     Size  Location     Type
  3587 ;;  unit            1   31[BANK0 ] unsigned char 
  3588 ;; Return value:  Size  Location     Type
  3589 ;;		None               void
  3590 ;; Registers used:
  3591 ;;		wreg
  3592 ;; Tracked objects:
  3593 ;;		On entry : 0/0
  3594 ;;		On exit  : 0/0
  3595 ;;		Unchanged: 0/0
  3596 ;; Data sizes:     COMRAM   BANK0   BANK1   BANK2   BANK3   BANK4   BANK5
  3597 ;;      Params:         0       0       0       0       0       0       0
  3598 ;;      Locals:         0       1       0       0       0       0       0
  3599 ;;      Temps:          0       0       0       0       0       0       0
  3600 ;;      Totals:         0       1       0       0       0       0       0
  3601 ;;Total ram usage:        1 bytes
  3602 ;; Hardware stack levels used:    1
  3603 ;; Hardware stack levels required when called:    6
  3604 ;; This function calls:
  3605 ;;		Nothing
  3606 ;; This function is called by:
  3607 ;;		_DisplayLCD
  3608 ;; This function uses a non-reentrant model
  3609 ;;
  3610                           
  3611                           	psect	text13
  3612  001B9E                     __ptext13:
  3613                           	opt stack 0
  3614  001B9E                     _Delay100TCYx:
  3615                           	opt stack 22
  3616                           
  3617                           ; BSR set to: 0
  3618                           ;incstack = 0
  3619  001B9E  FFFF               	dw	65535
  3620                           
  3621                           ;Delay100TCYx@unit stored from wreg
  3622  001BA0  0100               	movlb	0	; () banked
  3623  001BA2  6F9F               	movwf	Delay100TCYx@unit& (0+255),b
  3624  001BA4                     l430:
  3625                           
  3626                           ; BSR set to: 0
  3627                           
  3628                           ; BSR set to: 0
  3629  001BA4  0E19               	movlw	25
  3630  001BA6                     u2977:
  3631  001BA6  2EE8               	decfsz	wreg,f,c
  3632  001BA8  D7FE               	goto	u2977
  3633  001BAA  0100               	movlb	0	; () banked
  3634  001BAC  2F9F               	decfsz	Delay100TCYx@unit& (0+255),f,b
  3635  001BAE  D7FA               	goto	l430
  3636                           
  3637                           ; BSR set to: 0
  3638                           
  3639                           ; BSR set to: 0
  3640  001BB0  0012               	return	
  3641  001BB2  FFFF               	dw	65535	; errata NOP
  3642  001BB4                     __end_of_Delay100TCYx:
  3643                           	opt stack 0
  3644                           tblptru	equ	0xFF8
  3645                           tblptrh	equ	0xFF7
  3646                           tblptrl	equ	0xFF6
  3647                           tablat	equ	0xFF5
  3648                           prodl	equ	0xFF3
  3649                           postinc0	equ	0xFEE
  3650                           wreg	equ	0xFE8
  3651                           postinc1	equ	0xFE6
  3652                           postdec1	equ	0xFE5
  3653                           fsr1l	equ	0xFE1
  3654                           indf2	equ	0xFDF
  3655                           postinc2	equ	0xFDE
  3656                           fsr2h	equ	0xFDA
  3657                           fsr2l	equ	0xFD9
  3658                           status	equ	0xFD8
  3659                           
  3660 ;; *************** function _InitInterrupts *****************
  3661 ;; Defined at:
  3662 ;;		line 128 in file "user.c"
  3663 ;; Parameters:    Size  Location     Type
  3664 ;;		None
  3665 ;; Auto vars:     Size  Location     Type
  3666 ;;		None
  3667 ;; Return value:  Size  Location     Type
  3668 ;;		None               void
  3669 ;; Registers used:
  3670 ;;		None
  3671 ;; Tracked objects:
  3672 ;;		On entry : 0/0
  3673 ;;		On exit  : 0/0
  3674 ;;		Unchanged: 0/0
  3675 ;; Data sizes:     COMRAM   BANK0   BANK1   BANK2   BANK3   BANK4   BANK5
  3676 ;;      Params:         0       0       0       0       0       0       0
  3677 ;;      Locals:         0       0       0       0       0       0       0
  3678 ;;      Temps:          0       0       0       0       0       0       0
  3679 ;;      Totals:         0       0       0       0       0       0       0
  3680 ;;Total ram usage:        0 bytes
  3681 ;; Hardware stack levels used:    1
  3682 ;; Hardware stack levels required when called:    6
  3683 ;; This function calls:
  3684 ;;		Nothing
  3685 ;; This function is called by:
  3686 ;;		_main
  3687 ;; This function uses a non-reentrant model
  3688 ;;
  3689                           
  3690                           	psect	text14
  3691  001B16                     __ptext14:
  3692                           	opt stack 0
  3693  001B16                     _InitInterrupts:
  3694                           	opt stack 24
  3695                           
  3696                           ; BSR set to: 0
  3697                           ;incstack = 0
  3698  001B16  FFFF               	dw	65535
  3699                           
  3700                           ;user.c: 132: RCONbits.IPEN = 1;
  3701  001B18  8ED0               	bsf	4048,7,c	;volatile
  3702                           
  3703                           ;user.c: 133: INTCONbits.GIEH = 1;
  3704  001B1A  8EF2               	bsf	intcon,7,c	;volatile
  3705                           
  3706                           ;user.c: 134: INTCONbits.GIEL = 1;
  3707  001B1C  8CF2               	bsf	intcon,6,c	;volatile
  3708                           
  3709                           ;user.c: 138: INTCON2bits.NOT_RBPU = 0;
  3710  001B1E  9EF1               	bcf	intcon2,7,c	;volatile
  3711                           
  3712                           ;user.c: 139: INTCON2bits.RBIP = 0;
  3713  001B20  90F1               	bcf	intcon2,0,c	;volatile
  3714                           
  3715                           ;user.c: 140: INTCONbits.RBIF = 0;
  3716  001B22  90F2               	bcf	intcon,0,c	;volatile
  3717                           
  3718                           ;user.c: 141: INTCONbits.RBIE = 1;
  3719  001B24  86F2               	bsf	intcon,3,c	;volatile
  3720                           
  3721                           ;user.c: 145: CCP1CONbits.CCP1M3 = 1;
  3722  001B26  86BD               	bsf	4029,3,c	;volatile
  3723                           
  3724                           ;user.c: 146: CCP1CONbits.CCP1M2 = 1;
  3725  001B28  84BD               	bsf	4029,2,c	;volatile
  3726                           
  3727                           ;user.c: 147: CCP1CONbits.CCP1M1 = 0;
  3728  001B2A  92BD               	bcf	4029,1,c	;volatile
  3729                           
  3730                           ;user.c: 148: CCP1CONbits.CCP1M0 = 0;
  3731  001B2C  90BD               	bcf	4029,0,c	;volatile
  3732                           
  3733                           ;user.c: 153: INTCONbits.TMR0IF = 0;
  3734  001B2E  94F2               	bcf	intcon,2,c	;volatile
  3735                           
  3736                           ;user.c: 154: INTCON2bits.TMR0IP = 0;
  3737  001B30  94F1               	bcf	intcon2,2,c	;volatile
  3738                           
  3739                           ;user.c: 155: INTCONbits.TMR0IE = 1;
  3740  001B32  8AF2               	bsf	intcon,5,c	;volatile
  3741                           
  3742                           ;user.c: 159: T0CONbits.T08BIT = 0;
  3743  001B34  9CD5               	bcf	4053,6,c	;volatile
  3744                           
  3745                           ;user.c: 160: T0CONbits.T0CS = 0;
  3746  001B36  9AD5               	bcf	4053,5,c	;volatile
  3747                           
  3748                           ;user.c: 161: T0CONbits.PSA = 1;
  3749  001B38  86D5               	bsf	4053,3,c	;volatile
  3750                           
  3751                           ;user.c: 162: T0CONbits.TMR0ON = 1;
  3752  001B3A  8ED5               	bsf	4053,7,c	;volatile
  3753                           
  3754                           ;user.c: 166: T2CONbits.T2CKPS1 = 0;
  3755  001B3C  92CA               	bcf	4042,1,c	;volatile
  3756                           
  3757                           ;user.c: 167: T2CONbits.T2CKPS0 = 0;
  3758  001B3E  90CA               	bcf	4042,0,c	;volatile
  3759                           
  3760                           ;user.c: 168: T2CONbits.TMR2ON = 1;
  3761  001B40  84CA               	bsf	4042,2,c	;volatile
  3762  001B42  0012               	return	
  3763  001B44  FFFF               	dw	65535	; errata NOP
  3764  001B46                     __end_of_InitInterrupts:
  3765                           	opt stack 0
  3766                           tblptru	equ	0xFF8
  3767                           tblptrh	equ	0xFF7
  3768                           tblptrl	equ	0xFF6
  3769                           tablat	equ	0xFF5
  3770                           prodl	equ	0xFF3
  3771                           intcon	equ	0xFF2
  3772                           intcon2	equ	0xFF1
  3773                           postinc0	equ	0xFEE
  3774                           wreg	equ	0xFE8
  3775                           postinc1	equ	0xFE6
  3776                           postdec1	equ	0xFE5
  3777                           fsr1l	equ	0xFE1
  3778                           indf2	equ	0xFDF
  3779                           postinc2	equ	0xFDE
  3780                           fsr2h	equ	0xFDA
  3781                           fsr2l	equ	0xFD9
  3782                           status	equ	0xFD8
  3783                           
  3784 ;; *************** function _InitApp *****************
  3785 ;; Defined at:
  3786 ;;		line 21 in file "user.c"
  3787 ;; Parameters:    Size  Location     Type
  3788 ;;		None
  3789 ;; Auto vars:     Size  Location     Type
  3790 ;;		None
  3791 ;; Return value:  Size  Location     Type
  3792 ;;		None               void
  3793 ;; Registers used:
  3794 ;;		wreg, status,2, status,0, cstack
  3795 ;; Tracked objects:
  3796 ;;		On entry : 0/0
  3797 ;;		On exit  : 0/0
  3798 ;;		Unchanged: 0/0
  3799 ;; Data sizes:     COMRAM   BANK0   BANK1   BANK2   BANK3   BANK4   BANK5
  3800 ;;      Params:         0       0       0       0       0       0       0
  3801 ;;      Locals:         0       0       0       0       0       0       0
  3802 ;;      Temps:          0       0       0       0       0       0       0
  3803 ;;      Totals:         0       0       0       0       0       0       0
  3804 ;;Total ram usage:        0 bytes
  3805 ;; Hardware stack levels used:    1
  3806 ;; Hardware stack levels required when called:    8
  3807 ;; This function calls:
  3808 ;;		_WaitHalfSec
  3809 ;; This function is called by:
  3810 ;;		_main
  3811 ;; This function uses a non-reentrant model
  3812 ;;
  3813                           
  3814                           	psect	text15
  3815  001A30                     __ptext15:
  3816                           	opt stack 0
  3817  001A30                     _InitApp:
  3818                           	opt stack 22
  3819                           
  3820                           ;incstack = 0
  3821  001A30  FFFF               	dw	65535
  3822                           
  3823                           ;user.c: 25: TRISA = 0b11100001;
  3824  001A32  0EE1               	movlw	225
  3825  001A34  6E92               	movwf	3986,c	;volatile
  3826                           
  3827                           ;user.c: 26: TRISBbits.RB4 = 1;
  3828  001A36  8893               	bsf	3987,4,c	;volatile
  3829                           
  3830                           ;user.c: 27: TRISBbits.RB5 = 1;
  3831  001A38  8A93               	bsf	3987,5,c	;volatile
  3832                           
  3833                           ;user.c: 28: TRISBbits.RB1 = 0;
  3834  001A3A  9293               	bcf	3987,1,c	;volatile
  3835                           
  3836                           ;user.c: 29: PORTBbits.RB1 = 1;
  3837  001A3C  8281               	bsf	3969,1,c	;volatile
  3838                           
  3839                           ;user.c: 30: TRISCbits.RC2 = 0;
  3840  001A3E  9494               	bcf	3988,2,c	;volatile
  3841                           
  3842                           ;user.c: 31: TRISD = 0b00001111;
  3843  001A40  0E0F               	movlw	15
  3844  001A42  6E95               	movwf	3989,c	;volatile
  3845                           
  3846                           ;user.c: 32: TRISE = 0b00000100;
  3847  001A44  0E04               	movlw	4
  3848  001A46  6E96               	movwf	3990,c	;volatile
  3849                           
  3850                           ;user.c: 33: ADCON1 = 0b10000111;
  3851  001A48  0E87               	movlw	135
  3852  001A4A  6EC1               	movwf	4033,c	;volatile
  3853                           
  3854                           ;user.c: 37: PORTA = 0b00010000;
  3855  001A4C  0E10               	movlw	16
  3856  001A4E  6E80               	movwf	3968,c	;volatile
  3857                           
  3858                           ;user.c: 38: PORTAbits.RA3 = 1;
  3859  001A50  8680               	bsf	3968,3,c	;volatile
  3860                           
  3861                           ;user.c: 39: WaitHalfSec();
  3862  001A52  EC36  F00D         	call	_WaitHalfSec	;wreg free
  3863                           
  3864                           ;user.c: 40: PORTAbits.RA3 = 0;
  3865  001A56  9680               	bcf	3968,3,c	;volatile
  3866                           
  3867                           ;user.c: 41: PORTAbits.RA2 = 1;
  3868  001A58  8480               	bsf	3968,2,c	;volatile
  3869                           
  3870                           ;user.c: 42: WaitHalfSec();
  3871  001A5A  EC36  F00D         	call	_WaitHalfSec	;wreg free
  3872                           
  3873                           ;user.c: 43: PORTAbits.RA2 = 0;
  3874  001A5E  9480               	bcf	3968,2,c	;volatile
  3875                           
  3876                           ;user.c: 44: PORTAbits.RA1 = 1;
  3877  001A60  8280               	bsf	3968,1,c	;volatile
  3878                           
  3879                           ;user.c: 45: WaitHalfSec();
  3880  001A62  EC36  F00D         	call	_WaitHalfSec	;wreg free
  3881                           
  3882                           ;user.c: 46: PORTAbits.RA1 = 0;
  3883  001A66  9280               	bcf	3968,1,c	;volatile
  3884  001A68  0012               	return	
  3885  001A6A  FFFF               	dw	65535	; errata NOP
  3886  001A6C                     __end_of_InitApp:
  3887                           	opt stack 0
  3888                           tblptru	equ	0xFF8
  3889                           tblptrh	equ	0xFF7
  3890                           tblptrl	equ	0xFF6
  3891                           tablat	equ	0xFF5
  3892                           prodl	equ	0xFF3
  3893                           intcon	equ	0xFF2
  3894                           intcon2	equ	0xFF1
  3895                           postinc0	equ	0xFEE
  3896                           wreg	equ	0xFE8
  3897                           postinc1	equ	0xFE6
  3898                           postdec1	equ	0xFE5
  3899                           fsr1l	equ	0xFE1
  3900                           indf2	equ	0xFDF
  3901                           postinc2	equ	0xFDE
  3902                           fsr2h	equ	0xFDA
  3903                           fsr2l	equ	0xFD9
  3904                           status	equ	0xFD8
  3905                           
  3906 ;; *************** function _WaitHalfSec *****************
  3907 ;; Defined at:
  3908 ;;		line 53 in file "user.c"
  3909 ;; Parameters:    Size  Location     Type
  3910 ;;		None
  3911 ;; Auto vars:     Size  Location     Type
  3912 ;;  Halfcount       2   32[BANK0 ] int 
  3913 ;; Return value:  Size  Location     Type
  3914 ;;		None               void
  3915 ;; Registers used:
  3916 ;;		wreg, status,2, status,0, cstack
  3917 ;; Tracked objects:
  3918 ;;		On entry : 0/0
  3919 ;;		On exit  : 0/0
  3920 ;;		Unchanged: 0/0
  3921 ;; Data sizes:     COMRAM   BANK0   BANK1   BANK2   BANK3   BANK4   BANK5
  3922 ;;      Params:         0       0       0       0       0       0       0
  3923 ;;      Locals:         0       2       0       0       0       0       0
  3924 ;;      Temps:          0       0       0       0       0       0       0
  3925 ;;      Totals:         0       2       0       0       0       0       0
  3926 ;;Total ram usage:        2 bytes
  3927 ;; Hardware stack levels used:    1
  3928 ;; Hardware stack levels required when called:    7
  3929 ;; This function calls:
  3930 ;;		_Delay1KTCYx
  3931 ;; This function is called by:
  3932 ;;		_InitApp
  3933 ;; This function uses a non-reentrant model
  3934 ;;
  3935                           
  3936                           	psect	text16
  3937  001A6C                     __ptext16:
  3938                           	opt stack 0
  3939  001A6C                     _WaitHalfSec:
  3940                           	opt stack 22
  3941                           
  3942                           ;incstack = 0
  3943  001A6C  FFFF               	dw	65535
  3944                           
  3945                           ;user.c: 55: int Halfcount = 50;
  3946  001A6E  0E00               	movlw	0
  3947  001A70  0100               	movlb	0	; () banked
  3948  001A72  6FA1               	movwf	(WaitHalfSec@Halfcount+1)& (0+255),b
  3949  001A74  0E32               	movlw	50
  3950  001A76  0100               	movlb	0	; () banked
  3951  001A78  6FA0               	movwf	WaitHalfSec@Halfcount& (0+255),b
  3952                           
  3953                           ;user.c: 56: while (Halfcount != 0)
  3954  001A7A  D00D               	goto	l2351
  3955  001A7C                     l2347:
  3956                           
  3957                           ; BSR set to: 0
  3958                           ;user.c: 57: {
  3959                           ;user.c: 58: Delay1KTCYx(25);
  3960  001A7C  0E19               	movlw	25
  3961  001A7E  ECDA  F00D         	call	_Delay1KTCYx
  3962                           
  3963                           ;user.c: 59: Halfcount = Halfcount-1;
  3964  001A82  0EFF               	movlw	255
  3965  001A84  0100               	movlb	0	; () banked
  3966  001A86  25A0               	addwf	WaitHalfSec@Halfcount& (0+255),w,b
  3967  001A88  0100               	movlb	0	; () banked
  3968  001A8A  6FA0               	movwf	WaitHalfSec@Halfcount& (0+255),b
  3969  001A8C  0EFF               	movlw	255
  3970  001A8E  0100               	movlb	0	; () banked
  3971  001A90  21A1               	addwfc	(WaitHalfSec@Halfcount+1)& (0+255),w,b
  3972  001A92  0100               	movlb	0	; () banked
  3973  001A94  6FA1               	movwf	(WaitHalfSec@Halfcount+1)& (0+255),b
  3974  001A96                     l2351:
  3975                           
  3976                           ; BSR set to: 0
  3977  001A96  0100               	movlb	0	; () banked
  3978  001A98  51A1               	movf	(WaitHalfSec@Halfcount+1)& (0+255),w,b
  3979  001A9A  11A0               	iorwf	WaitHalfSec@Halfcount& (0+255),w,b
  3980  001A9C  B4D8               	btfsc	status,2,c
  3981                           
  3982                           ; BSR set to: 0
  3983                           
  3984                           ; BSR set to: 0
  3985  001A9E  0012               	return	
  3986  001AA0  FFFF               	dw	65535	; assembler added errata NOP
  3987  001AA2  D7EC               	goto	l2347
  3988  001AA4  FFFF               	dw	65535	; errata NOP
  3989  001AA6                     __end_of_WaitHalfSec:
  3990                           	opt stack 0
  3991                           tblptru	equ	0xFF8
  3992                           tblptrh	equ	0xFF7
  3993                           tblptrl	equ	0xFF6
  3994                           tablat	equ	0xFF5
  3995                           prodl	equ	0xFF3
  3996                           intcon	equ	0xFF2
  3997                           intcon2	equ	0xFF1
  3998                           postinc0	equ	0xFEE
  3999                           wreg	equ	0xFE8
  4000                           postinc1	equ	0xFE6
  4001                           postdec1	equ	0xFE5
  4002                           fsr1l	equ	0xFE1
  4003                           indf2	equ	0xFDF
  4004                           postinc2	equ	0xFDE
  4005                           fsr2h	equ	0xFDA
  4006                           fsr2l	equ	0xFD9
  4007                           status	equ	0xFD8
  4008                           
  4009 ;; *************** function _Delay1KTCYx *****************
  4010 ;; Defined at:
  4011 ;;		line 8 in file "/Applications/microchip/xc8/v1.33/sources/pic18/d1ktcyx.c"
  4012 ;; Parameters:    Size  Location     Type
  4013 ;;  unit            1    wreg     unsigned char 
  4014 ;; Auto vars:     Size  Location     Type
  4015 ;;  unit            1   31[BANK0 ] unsigned char 
  4016 ;; Return value:  Size  Location     Type
  4017 ;;		None               void
  4018 ;; Registers used:
  4019 ;;		wreg
  4020 ;; Tracked objects:
  4021 ;;		On entry : 0/0
  4022 ;;		On exit  : 0/0
  4023 ;;		Unchanged: 0/0
  4024 ;; Data sizes:     COMRAM   BANK0   BANK1   BANK2   BANK3   BANK4   BANK5
  4025 ;;      Params:         0       0       0       0       0       0       0
  4026 ;;      Locals:         0       1       0       0       0       0       0
  4027 ;;      Temps:          0       0       0       0       0       0       0
  4028 ;;      Totals:         0       1       0       0       0       0       0
  4029 ;;Total ram usage:        1 bytes
  4030 ;; Hardware stack levels used:    1
  4031 ;; Hardware stack levels required when called:    6
  4032 ;; This function calls:
  4033 ;;		Nothing
  4034 ;; This function is called by:
  4035 ;;		_main
  4036 ;;		_WaitHalfSec
  4037 ;;		_DisplayLCD
  4038 ;; This function uses a non-reentrant model
  4039 ;;
  4040                           
  4041                           	psect	text17
  4042  001BB4                     __ptext17:
  4043                           	opt stack 0
  4044  001BB4                     _Delay1KTCYx:
  4045                           	opt stack 22
  4046                           
  4047                           ; BSR set to: 0
  4048                           ;incstack = 0
  4049  001BB4  FFFF               	dw	65535
  4050                           
  4051                           ;Delay1KTCYx@unit stored from wreg
  4052  001BB6  0100               	movlb	0	; () banked
  4053  001BB8  6F9F               	movwf	Delay1KTCYx@unit& (0+255),b
  4054  001BBA                     l444:
  4055                           
  4056                           ; BSR set to: 0
  4057                           
  4058                           ; BSR set to: 0
  4059  001BBA  0EFA               	movlw	250
  4060  001BBC                     u2987:
  4061  001BBC  2EE8               	decfsz	wreg,f,c
  4062  001BBE  D7FE               	goto	u2987
  4063  001BC0  0100               	movlb	0	; () banked
  4064  001BC2  2F9F               	decfsz	Delay1KTCYx@unit& (0+255),f,b
  4065  001BC4  D7FA               	goto	l444
  4066                           
  4067                           ; BSR set to: 0
  4068                           
  4069                           ; BSR set to: 0
  4070  001BC6  0012               	return	
  4071  001BC8  FFFF               	dw	65535	; errata NOP
  4072  001BCA                     __end_of_Delay1KTCYx:
  4073                           	opt stack 0
  4074                           tblptru	equ	0xFF8
  4075                           tblptrh	equ	0xFF7
  4076                           tblptrl	equ	0xFF6
  4077                           tablat	equ	0xFF5
  4078                           prodl	equ	0xFF3
  4079                           intcon	equ	0xFF2
  4080                           intcon2	equ	0xFF1
  4081                           postinc0	equ	0xFEE
  4082                           wreg	equ	0xFE8
  4083                           postinc1	equ	0xFE6
  4084                           postdec1	equ	0xFE5
  4085                           fsr1l	equ	0xFE1
  4086                           indf2	equ	0xFDF
  4087                           postinc2	equ	0xFDE
  4088                           fsr2h	equ	0xFDA
  4089                           fsr2l	equ	0xFD9
  4090                           status	equ	0xFD8
  4091                           
  4092 ;; *************** function _CloseTimer0 *****************
  4093 ;; Defined at:
  4094 ;;		line 15 in file "/Applications/microchip/xc8/v1.33/sources/pic18/plib/Timers/t0close.c"
  4095 ;; Parameters:    Size  Location     Type
  4096 ;;		None
  4097 ;; Auto vars:     Size  Location     Type
  4098 ;;		None
  4099 ;; Return value:  Size  Location     Type
  4100 ;;		None               void
  4101 ;; Registers used:
  4102 ;;		None
  4103 ;; Tracked objects:
  4104 ;;		On entry : 0/0
  4105 ;;		On exit  : 0/0
  4106 ;;		Unchanged: 0/0
  4107 ;; Data sizes:     COMRAM   BANK0   BANK1   BANK2   BANK3   BANK4   BANK5
  4108 ;;      Params:         0       0       0       0       0       0       0
  4109 ;;      Locals:         0       0       0       0       0       0       0
  4110 ;;      Temps:          0       0       0       0       0       0       0
  4111 ;;      Totals:         0       0       0       0       0       0       0
  4112 ;;Total ram usage:        0 bytes
  4113 ;; Hardware stack levels used:    1
  4114 ;; Hardware stack levels required when called:    6
  4115 ;; This function calls:
  4116 ;;		Nothing
  4117 ;; This function is called by:
  4118 ;;		_main
  4119 ;; This function uses a non-reentrant model
  4120 ;;
  4121                           
  4122                           	psect	text18
  4123  001BF2                     __ptext18:
  4124                           	opt stack 0
  4125  001BF2                     _CloseTimer0:
  4126                           	opt stack 24
  4127                           
  4128                           ; BSR set to: 0
  4129                           ;incstack = 0
  4130  001BF2  FFFF               	dw	65535
  4131  001BF4  9ED5               	bcf	4053,7,c	;volatile
  4132  001BF6  9AF2               	bcf	intcon,5,c	;volatile
  4133  001BF8  0012               	return	
  4134  001BFA  FFFF               	dw	65535	; errata NOP
  4135  001BFC                     __end_of_CloseTimer0:
  4136                           	opt stack 0
  4137                           tblptru	equ	0xFF8
  4138                           tblptrh	equ	0xFF7
  4139                           tblptrl	equ	0xFF6
  4140                           tablat	equ	0xFF5
  4141                           prodl	equ	0xFF3
  4142                           intcon	equ	0xFF2
  4143                           intcon2	equ	0xFF1
  4144                           postinc0	equ	0xFEE
  4145                           wreg	equ	0xFE8
  4146                           postinc1	equ	0xFE6
  4147                           postdec1	equ	0xFE5
  4148                           fsr1l	equ	0xFE1
  4149                           indf2	equ	0xFDF
  4150                           postinc2	equ	0xFDE
  4151                           fsr2h	equ	0xFDA
  4152                           fsr2l	equ	0xFD9
  4153                           status	equ	0xFD8
  4154                           
  4155 ;; *************** function _low_isr *****************
  4156 ;; Defined at:
  4157 ;;		line 93 in file "main.c"
  4158 ;; Parameters:    Size  Location     Type
  4159 ;;		None
  4160 ;; Auto vars:     Size  Location     Type
  4161 ;;		None
  4162 ;; Return value:  Size  Location     Type
  4163 ;;		None               void
  4164 ;; Registers used:
  4165 ;;		wreg, status,2, status,0, tblptrl, tblptrh, tblptru, prodl, cstack
  4166 ;; Tracked objects:
  4167 ;;		On entry : 0/0
  4168 ;;		On exit  : 0/0
  4169 ;;		Unchanged: 0/0
  4170 ;; Data sizes:     COMRAM   BANK0   BANK1   BANK2   BANK3   BANK4   BANK5
  4171 ;;      Params:         0       0       0       0       0       0       0
  4172 ;;      Locals:         0       0       0       0       0       0       0
  4173 ;;      Temps:         17       0       0       0       0       0       0
  4174 ;;      Totals:        17       0       0       0       0       0       0
  4175 ;;Total ram usage:       17 bytes
  4176 ;; Hardware stack levels used:    1
  4177 ;; Hardware stack levels required when called:    5
  4178 ;; This function calls:
  4179 ;;		_ReadEncoder
  4180 ;;		_fabs
  4181 ;;		i1_WriteTimer0
  4182 ;;		i1___ftdiv
  4183 ;; This function is called by:
  4184 ;;		Interrupt level 1
  4185 ;; This function uses a non-reentrant model
  4186 ;;
  4187                           
  4188 ;; *************** function _TimerStopped *****************
  4189 ;; Defined at:
  4190 ;;		line 15 in file "interrupts.c"
  4191 ;; Parameters:    Size  Location     Type
  4192 ;;		None
  4193 ;; Auto vars:     Size  Location     Type
  4194 ;;		None
  4195 ;; Return value:  Size  Location     Type
  4196 ;;		None               void
  4197 ;; Registers used:
  4198 ;;		None
  4199 ;; Tracked objects:
  4200 ;;		On entry : 0/0
  4201 ;;		On exit  : 0/0
  4202 ;;		Unchanged: 0/0
  4203 ;; Data sizes:     COMRAM   BANK0   BANK1   BANK2   BANK3   BANK4   BANK5
  4204 ;;      Params:         0       0       0       0       0       0       0
  4205 ;;      Locals:         0       0       0       0       0       0       0
  4206 ;;      Temps:          0      17       0       0       0       0       0
  4207 ;;      Totals:         0      17       0       0       0       0       0
  4208 ;;Total ram usage:       17 bytes
  4209 ;; Hardware stack levels used:    1
  4210 ;; Hardware stack levels required when called:    1
  4211 ;; This function calls:
  4212 ;;		Nothing
  4213 ;; This function is called by:
  4214 ;;		Interrupt level 1
  4215 ;; This function uses a non-reentrant model
  4216 ;;
  4217                           
  4218                           	psect	intcodelo
  4219  000018                     __pintcodelo:
  4220                           	opt stack 0
  4221  000018                     _low_isr:
  4222                           	opt stack 22
  4223                           
  4224                           ;incstack = 0
  4225  000018  FFFF               	dw	65535	; errata NOP
  4226  00001A  CFD8 F03C          	movff	status,??_low_isr
  4227  00001E  CFE8 F03D          	movff	wreg,??_low_isr+1
  4228  000022  CFE0 F03E          	movff	bsr,??_low_isr+2
  4229  000026  CFFA F03F          	movff	pclath,??_low_isr+3
  4230  00002A  CFFB F040          	movff	pclatu,??_low_isr+4
  4231  00002E  CFE9 F041          	movff	fsr0l,??_low_isr+5
  4232  000032  CFEA F042          	movff	fsr0h,??_low_isr+6
  4233  000036  CFE1 F043          	movff	fsr1l,??_low_isr+7
  4234  00003A  CFE2 F044          	movff	fsr1h,??_low_isr+8
  4235  00003E  CFD9 F045          	movff	fsr2l,??_low_isr+9
  4236  000042  CFDA F046          	movff	fsr2h,??_low_isr+10
  4237  000046  CFF3 F047          	movff	prodl,??_low_isr+11
  4238  00004A  CFF4 F048          	movff	prodh,??_low_isr+12
  4239  00004E  CFF6 F049          	movff	tblptrl,??_low_isr+13
  4240  000052  CFF7 F04A          	movff	tblptrh,??_low_isr+14
  4241  000056  CFF8 F04B          	movff	tblptru,??_low_isr+15
  4242  00005A  CFF5 F04C          	movff	tablat,??_low_isr+16
  4243                           
  4244                           ;main.c: 95: if(INTCONbits.RBIF == 1)
  4245  00005E  A0F2               	btfss	intcon,0,c	;volatile
  4246  000060  D004               	goto	i1l68
  4247                           
  4248                           ;main.c: 96: {
  4249                           ;main.c: 97: ReadEncoder();
  4250  000062  EC97  F005         	call	_ReadEncoder	;wreg free
  4251                           
  4252                           ;main.c: 98: INTCONbits.RBIF = 0;
  4253  000066  90F2               	bcf	intcon,0,c	;volatile
  4254                           
  4255                           ;main.c: 99: }
  4256  000068  D02B               	goto	i1l71
  4257  00006A                     i1l68:
  4258                           
  4259                           ;main.c: 101: else if (INTCONbits.TMR0IF == 1)
  4260  00006A  A4F2               	btfss	intcon,2,c	;volatile
  4261  00006C  D029               	goto	i1l71
  4262                           
  4263                           ;main.c: 102: {
  4264                           ;main.c: 103: RPS = (fabs(PartialRot))/0.026;
  4265  00006E  C04D  F004         	movff	_PartialRot,fabs@d
  4266  000072  C04E  F005         	movff	_PartialRot+1,fabs@d+1
  4267  000076  C04F  F006         	movff	_PartialRot+2,fabs@d+2
  4268  00007A  ECF5  F00C         	call	_fabs	;wreg free
  4269  00007E  C004  F00D         	movff	?_fabs,i1___ftdiv@f1
  4270  000082  C005  F00E         	movff	?_fabs+1,i1___ftdiv@f1+1
  4271  000086  C006  F00F         	movff	?_fabs+2,i1___ftdiv@f1+2
  4272  00008A  0EFE               	movlw	254
  4273  00008C  6E10               	movwf	i1___ftdiv@f2,c
  4274  00008E  0ED4               	movlw	212
  4275  000090  6E11               	movwf	i1___ftdiv@f2+1,c
  4276  000092  0E3C               	movlw	60
  4277  000094  6E12               	movwf	i1___ftdiv@f2+2,c
  4278  000096  ECBF  F00A         	call	i1___ftdiv	;wreg free
  4279  00009A  C00D  F12C         	movff	?i1___ftdiv,_RPS
  4280  00009E  C00E  F12D         	movff	?i1___ftdiv+1,_RPS+1
  4281  0000A2  C00F  F12E         	movff	?i1___ftdiv+2,_RPS+2
  4282                           
  4283                           ;main.c: 104: PartialRot = 0.0;
  4284  0000A6  0E00               	movlw	0
  4285  0000A8  6E4D               	movwf	_PartialRot,c
  4286  0000AA  0E00               	movlw	0
  4287  0000AC  6E4E               	movwf	_PartialRot+1,c
  4288  0000AE  0E00               	movlw	0
  4289  0000B0  6E4F               	movwf	_PartialRot+2,c
  4290                           
  4291                           ;main.c: 105: WriteTimer0(0x0000);
  4292  0000B2  0E00               	movlw	0
  4293  0000B4  6E02               	movwf	i1WriteTimer0@timer0+1,c
  4294  0000B6  0E00               	movlw	0
  4295  0000B8  6E01               	movwf	i1WriteTimer0@timer0,c
  4296  0000BA  ECE5  F00D         	call	i1_WriteTimer0	;wreg free
  4297                           
  4298                           ;main.c: 106: INTCONbits.TMR0IF = 0;
  4299  0000BE  94F2               	bcf	intcon,2,c	;volatile
  4300  0000C0                     i1l71:
  4301  0000C0  C04C  FFF5         	movff	??_low_isr+16,tablat
  4302  0000C4  C04B  FFF8         	movff	??_low_isr+15,tblptru
  4303  0000C8  C04A  FFF7         	movff	??_low_isr+14,tblptrh
  4304  0000CC  C049  FFF6         	movff	??_low_isr+13,tblptrl
  4305  0000D0  C048  FFF4         	movff	??_low_isr+12,prodh
  4306  0000D4  C047  FFF3         	movff	??_low_isr+11,prodl
  4307  0000D8  C046  FFDA         	movff	??_low_isr+10,fsr2h
  4308  0000DC  C045  FFD9         	movff	??_low_isr+9,fsr2l
  4309  0000E0  C044  FFE2         	movff	??_low_isr+8,fsr1h
  4310  0000E4  C043  FFE1         	movff	??_low_isr+7,fsr1l
  4311  0000E8  C042  FFEA         	movff	??_low_isr+6,fsr0h
  4312  0000EC  C041  FFE9         	movff	??_low_isr+5,fsr0l
  4313  0000F0  C040  FFFB         	movff	??_low_isr+4,pclatu
  4314  0000F4  C03F  FFFA         	movff	??_low_isr+3,pclath
  4315  0000F8  C03E  FFE0         	movff	??_low_isr+2,bsr
  4316  0000FC  C03D  FFE8         	movff	??_low_isr+1,wreg
  4317  000100  C03C  FFD8         	movff	??_low_isr,status
  4318  000104  0010               	retfie	
  4319  000106  FFFF               	dw	65535	; errata NOP
  4320  000108                     __end_of_low_isr:
  4321                           	opt stack 0
  4322  000108                     _TimerStopped:
  4323                           	opt stack 26
  4324                           
  4325                           ;incstack = 0
  4326  000108  FFFF               	dw	65535	; errata NOP
  4327  00010A  CFD8 F080          	movff	status,??_TimerStopped
  4328  00010E  CFE8 F081          	movff	wreg,??_TimerStopped+1
  4329  000112  CFE0 F082          	movff	bsr,??_TimerStopped+2
  4330  000116  CFFA F083          	movff	pclath,??_TimerStopped+3
  4331  00011A  CFFB F084          	movff	pclatu,??_TimerStopped+4
  4332  00011E  CFE9 F085          	movff	fsr0l,??_TimerStopped+5
  4333  000122  CFEA F086          	movff	fsr0h,??_TimerStopped+6
  4334  000126  CFE1 F087          	movff	fsr1l,??_TimerStopped+7
  4335  00012A  CFE2 F088          	movff	fsr1h,??_TimerStopped+8
  4336  00012E  CFD9 F089          	movff	fsr2l,??_TimerStopped+9
  4337  000132  CFDA F08A          	movff	fsr2h,??_TimerStopped+10
  4338  000136  CFF3 F08B          	movff	prodl,??_TimerStopped+11
  4339  00013A  CFF4 F08C          	movff	prodh,??_TimerStopped+12
  4340  00013E  CFF6 F08D          	movff	tblptrl,??_TimerStopped+13
  4341  000142  CFF7 F08E          	movff	tblptrh,??_TimerStopped+14
  4342  000146  CFF8 F08F          	movff	tblptru,??_TimerStopped+15
  4343  00014A  CFF5 F090          	movff	tablat,??_TimerStopped+16
  4344                           
  4345                           ;interrupts.c: 18: if(INTCONbits.INT0F == 1)
  4346  00014E  A2F2               	btfss	intcon,1,c	;volatile
  4347  000150  D002               	goto	i1l190
  4348                           
  4349                           ;interrupts.c: 19: {
  4350                           ;interrupts.c: 20: LATB4 = ~LATB4;
  4351  000152  788A               	btg	3978,4,c	;volatile
  4352                           
  4353                           ;interrupts.c: 21: INTCONbits.INT0F = 0;
  4354  000154  92F2               	bcf	intcon,1,c	;volatile
  4355  000156                     i1l190:
  4356  000156  C090  FFF5         	movff	??_TimerStopped+16,tablat
  4357  00015A  C08F  FFF8         	movff	??_TimerStopped+15,tblptru
  4358  00015E  C08E  FFF7         	movff	??_TimerStopped+14,tblptrh
  4359  000162  C08D  FFF6         	movff	??_TimerStopped+13,tblptrl
  4360  000166  C08C  FFF4         	movff	??_TimerStopped+12,prodh
  4361  00016A  C08B  FFF3         	movff	??_TimerStopped+11,prodl
  4362  00016E  C08A  FFDA         	movff	??_TimerStopped+10,fsr2h
  4363  000172  C089  FFD9         	movff	??_TimerStopped+9,fsr2l
  4364  000176  C088  FFE2         	movff	??_TimerStopped+8,fsr1h
  4365  00017A  C087  FFE1         	movff	??_TimerStopped+7,fsr1l
  4366  00017E  C086  FFEA         	movff	??_TimerStopped+6,fsr0h
  4367  000182  C085  FFE9         	movff	??_TimerStopped+5,fsr0l
  4368  000186  C084  FFFB         	movff	??_TimerStopped+4,pclatu
  4369  00018A  C083  FFFA         	movff	??_TimerStopped+3,pclath
  4370  00018E  C082  FFE0         	movff	??_TimerStopped+2,bsr
  4371  000192  C081  FFE8         	movff	??_TimerStopped+1,wreg
  4372  000196  C080  FFD8         	movff	??_TimerStopped,status
  4373  00019A  0010               	retfie	
  4374  00019C  FFFF               	dw	65535	; errata NOP
  4375  00019E                     __end_of_TimerStopped:
  4376                           	opt stack 0
  4377                           pclatu	equ	0xFFB
  4378                           pclath	equ	0xFFA
  4379                           tblptru	equ	0xFF8
  4380                           tblptrh	equ	0xFF7
  4381                           tblptrl	equ	0xFF6
  4382                           tablat	equ	0xFF5
  4383                           prodh	equ	0xFF4
  4384                           prodl	equ	0xFF3
  4385                           intcon	equ	0xFF2
  4386                           intcon2	equ	0xFF1
  4387                           postinc0	equ	0xFEE
  4388                           fsr0h	equ	0xFEA
  4389                           fsr0l	equ	0xFE9
  4390                           wreg	equ	0xFE8
  4391                           postinc1	equ	0xFE6
  4392                           postdec1	equ	0xFE5
  4393                           fsr1h	equ	0xFE2
  4394                           fsr1l	equ	0xFE1
  4395                           bsr	equ	0xFE0
  4396                           indf2	equ	0xFDF
  4397                           postinc2	equ	0xFDE
  4398                           fsr2h	equ	0xFDA
  4399                           fsr2l	equ	0xFD9
  4400                           status	equ	0xFD8
  4401                           
  4402 ;; *************** function i1_WriteTimer0 *****************
  4403 ;; Defined at:
  4404 ;;		line 16 in file "/Applications/microchip/xc8/v1.33/sources/pic18/plib/Timers/t0write.c"
  4405 ;; Parameters:    Size  Location     Type
  4406 ;;  timer0          2    0[COMRAM] unsigned int 
  4407 ;; Auto vars:     Size  Location     Type
  4408 ;;  WriteTimer0     2    2[COMRAM] struct Timers
  4409 ;; Return value:  Size  Location     Type
  4410 ;;		None               void
  4411 ;; Registers used:
  4412 ;;		None
  4413 ;; Tracked objects:
  4414 ;;		On entry : 0/0
  4415 ;;		On exit  : 0/0
  4416 ;;		Unchanged: 0/0
  4417 ;; Data sizes:     COMRAM   BANK0   BANK1   BANK2   BANK3   BANK4   BANK5
  4418 ;;      Params:         2       0       0       0       0       0       0
  4419 ;;      Locals:         2       0       0       0       0       0       0
  4420 ;;      Temps:          0       0       0       0       0       0       0
  4421 ;;      Totals:         4       0       0       0       0       0       0
  4422 ;;Total ram usage:        4 bytes
  4423 ;; Hardware stack levels used:    1
  4424 ;; Hardware stack levels required when called:    1
  4425 ;; This function calls:
  4426 ;;		Nothing
  4427 ;; This function is called by:
  4428 ;;		_low_isr
  4429 ;; This function uses a non-reentrant model
  4430 ;;
  4431                           
  4432                           	psect	text20
  4433  001BCA                     __ptext20:
  4434                           	opt stack 0
  4435  001BCA                     i1_WriteTimer0:
  4436                           	opt stack 25
  4437                           
  4438                           ;incstack = 0
  4439  001BCA  FFFF               	dw	65535
  4440  001BCC  C001  F003         	movff	i1WriteTimer0@timer0,i1WriteTimer0@timer
  4441  001BD0  C002  F004         	movff	i1WriteTimer0@timer0+1,i1WriteTimer0@timer+1
  4442  001BD4  C004  FFD7         	movff	i1WriteTimer0@timer+1,4055	;volatile
  4443  001BD8  C003  FFD6         	movff	i1WriteTimer0@timer,4054	;volatile
  4444  001BDC  0012               	return	
  4445  001BDE  FFFF               	dw	65535	; errata NOP
  4446  001BE0                     __end_ofi1_WriteTimer0:
  4447                           	opt stack 0
  4448                           pclatu	equ	0xFFB
  4449                           pclath	equ	0xFFA
  4450                           tblptru	equ	0xFF8
  4451                           tblptrh	equ	0xFF7
  4452                           tblptrl	equ	0xFF6
  4453                           tablat	equ	0xFF5
  4454                           prodh	equ	0xFF4
  4455                           prodl	equ	0xFF3
  4456                           intcon	equ	0xFF2
  4457                           intcon2	equ	0xFF1
  4458                           postinc0	equ	0xFEE
  4459                           fsr0h	equ	0xFEA
  4460                           fsr0l	equ	0xFE9
  4461                           wreg	equ	0xFE8
  4462                           postinc1	equ	0xFE6
  4463                           postdec1	equ	0xFE5
  4464                           fsr1h	equ	0xFE2
  4465                           fsr1l	equ	0xFE1
  4466                           bsr	equ	0xFE0
  4467                           indf2	equ	0xFDF
  4468                           postinc2	equ	0xFDE
  4469                           fsr2h	equ	0xFDA
  4470                           fsr2l	equ	0xFD9
  4471                           status	equ	0xFD8
  4472                           
  4473 ;; *************** function _fabs *****************
  4474 ;; Defined at:
  4475 ;;		line 4 in file "/Applications/microchip/xc8/v1.33/sources/common/fabs.c"
  4476 ;; Parameters:    Size  Location     Type
  4477 ;;  d               3    3[COMRAM] struct Timers
  4478 ;; Auto vars:     Size  Location     Type
  4479 ;;		None
  4480 ;; Return value:  Size  Location     Type
  4481 ;;                  3    3[COMRAM] struct Timers
  4482 ;; Registers used:
  4483 ;;		wreg, status,2, status,0, cstack
  4484 ;; Tracked objects:
  4485 ;;		On entry : 0/0
  4486 ;;		On exit  : 0/0
  4487 ;;		Unchanged: 0/0
  4488 ;; Data sizes:     COMRAM   BANK0   BANK1   BANK2   BANK3   BANK4   BANK5
  4489 ;;      Params:         3       0       0       0       0       0       0
  4490 ;;      Locals:         0       0       0       0       0       0       0
  4491 ;;      Temps:          0       0       0       0       0       0       0
  4492 ;;      Totals:         3       0       0       0       0       0       0
  4493 ;;Total ram usage:        3 bytes
  4494 ;; Hardware stack levels used:    1
  4495 ;; Hardware stack levels required when called:    2
  4496 ;; This function calls:
  4497 ;;		i1___ftneg
  4498 ;; This function is called by:
  4499 ;;		_low_isr
  4500 ;; This function uses a non-reentrant model
  4501 ;;
  4502                           
  4503                           	psect	text21
  4504  0019EA                     __ptext21:
  4505                           	opt stack 0
  4506  0019EA                     _fabs:
  4507                           	opt stack 24
  4508                           
  4509                           ;incstack = 0
  4510  0019EA  FFFF               	dw	65535
  4511  0019EC  5006               	movf	fabs@d+2,w,c
  4512  0019EE  0A80               	xorlw	128
  4513  0019F0  0F80               	addlw	128
  4514  0019F2  E105               	bnz	i1u220_25
  4515  0019F4  0E00               	movlw	0
  4516  0019F6  5C05               	subwf	fabs@d+1,w,c
  4517  0019F8  E102               	bnz	i1u220_25
  4518  0019FA  0E00               	movlw	0
  4519  0019FC  5C04               	subwf	fabs@d,w,c
  4520  0019FE                     i1u220_25:
  4521  0019FE  B0D8               	btfsc	status,0,c
  4522  001A00  D00F               	goto	i1l466
  4523  001A02  C004  F001         	movff	fabs@d,i1___ftneg@f1
  4524  001A06  C005  F002         	movff	fabs@d+1,i1___ftneg@f1+1
  4525  001A0A  C006  F003         	movff	fabs@d+2,i1___ftneg@f1+2
  4526  001A0E  ECA3  F00D         	call	i1___ftneg	;wreg free
  4527  001A12  C001  F004         	movff	?i1___ftneg,?_fabs
  4528  001A16  C002  F005         	movff	?i1___ftneg+1,?_fabs+1
  4529  001A1A  C003  F006         	movff	?i1___ftneg+2,?_fabs+2
  4530  001A1E  D006               	goto	i1l467
  4531  001A20                     i1l466:
  4532  001A20  C004  F004         	movff	fabs@d,?_fabs
  4533  001A24  C005  F005         	movff	fabs@d+1,?_fabs+1
  4534  001A28  C006  F006         	movff	fabs@d+2,?_fabs+2
  4535  001A2C                     i1l467:
  4536  001A2C  0012               	return	
  4537  001A2E  FFFF               	dw	65535	; errata NOP
  4538  001A30                     __end_of_fabs:
  4539                           	opt stack 0
  4540                           pclatu	equ	0xFFB
  4541                           pclath	equ	0xFFA
  4542                           tblptru	equ	0xFF8
  4543                           tblptrh	equ	0xFF7
  4544                           tblptrl	equ	0xFF6
  4545                           tablat	equ	0xFF5
  4546                           prodh	equ	0xFF4
  4547                           prodl	equ	0xFF3
  4548                           intcon	equ	0xFF2
  4549                           intcon2	equ	0xFF1
  4550                           postinc0	equ	0xFEE
  4551                           fsr0h	equ	0xFEA
  4552                           fsr0l	equ	0xFE9
  4553                           wreg	equ	0xFE8
  4554                           postinc1	equ	0xFE6
  4555                           postdec1	equ	0xFE5
  4556                           fsr1h	equ	0xFE2
  4557                           fsr1l	equ	0xFE1
  4558                           bsr	equ	0xFE0
  4559                           indf2	equ	0xFDF
  4560                           postinc2	equ	0xFDE
  4561                           fsr2h	equ	0xFDA
  4562                           fsr2l	equ	0xFD9
  4563                           status	equ	0xFD8
  4564                           
  4565 ;; *************** function i1___ftneg *****************
  4566 ;; Defined at:
  4567 ;;		line 15 in file "/Applications/microchip/xc8/v1.33/sources/common/ftneg.c"
  4568 ;; Parameters:    Size  Location     Type
  4569 ;;  f1              3    0[COMRAM] float 
  4570 ;; Auto vars:     Size  Location     Type
  4571 ;;		None
  4572 ;; Return value:  Size  Location     Type
  4573 ;;                  3    0[COMRAM] float 
  4574 ;; Registers used:
  4575 ;;		wreg, status,2, status,0
  4576 ;; Tracked objects:
  4577 ;;		On entry : 0/0
  4578 ;;		On exit  : 0/0
  4579 ;;		Unchanged: 0/0
  4580 ;; Data sizes:     COMRAM   BANK0   BANK1   BANK2   BANK3   BANK4   BANK5
  4581 ;;      Params:         3       0       0       0       0       0       0
  4582 ;;      Locals:         0       0       0       0       0       0       0
  4583 ;;      Temps:          0       0       0       0       0       0       0
  4584 ;;      Totals:         3       0       0       0       0       0       0
  4585 ;;Total ram usage:        3 bytes
  4586 ;; Hardware stack levels used:    1
  4587 ;; Hardware stack levels required when called:    1
  4588 ;; This function calls:
  4589 ;;		Nothing
  4590 ;; This function is called by:
  4591 ;;		_fabs
  4592 ;; This function uses a non-reentrant model
  4593 ;;
  4594                           
  4595                           	psect	text22
  4596  001B46                     __ptext22:
  4597                           	opt stack 0
  4598  001B46                     i1___ftneg:
  4599                           	opt stack 24
  4600                           
  4601                           ;incstack = 0
  4602  001B46  FFFF               	dw	65535
  4603  001B48  0E7F               	movlw	127
  4604  001B4A  1403               	andwf	i1___ftneg@f1+2,w,c
  4605  001B4C  1002               	iorwf	i1___ftneg@f1+1,w,c
  4606  001B4E  1001               	iorwf	i1___ftneg@f1,w,c
  4607  001B50  B4D8               	btfsc	status,2,c
  4608  001B52  D006               	goto	i1l632
  4609  001B54  0E00               	movlw	0
  4610  001B56  1A01               	xorwf	i1___ftneg@f1,f,c
  4611  001B58  0E00               	movlw	0
  4612  001B5A  1A02               	xorwf	i1___ftneg@f1+1,f,c
  4613  001B5C  0E80               	movlw	128
  4614  001B5E  1A03               	xorwf	i1___ftneg@f1+2,f,c
  4615  001B60                     i1l632:
  4616  001B60  C001  F001         	movff	i1___ftneg@f1,?i1___ftneg
  4617  001B64  C002  F002         	movff	i1___ftneg@f1+1,?i1___ftneg+1
  4618  001B68  C003  F003         	movff	i1___ftneg@f1+2,?i1___ftneg+2
  4619  001B6C  0012               	return	
  4620  001B6E  FFFF               	dw	65535	; errata NOP
  4621  001B70                     __end_ofi1___ftneg:
  4622                           	opt stack 0
  4623                           pclatu	equ	0xFFB
  4624                           pclath	equ	0xFFA
  4625                           tblptru	equ	0xFF8
  4626                           tblptrh	equ	0xFF7
  4627                           tblptrl	equ	0xFF6
  4628                           tablat	equ	0xFF5
  4629                           prodh	equ	0xFF4
  4630                           prodl	equ	0xFF3
  4631                           intcon	equ	0xFF2
  4632                           intcon2	equ	0xFF1
  4633                           postinc0	equ	0xFEE
  4634                           fsr0h	equ	0xFEA
  4635                           fsr0l	equ	0xFE9
  4636                           wreg	equ	0xFE8
  4637                           postinc1	equ	0xFE6
  4638                           postdec1	equ	0xFE5
  4639                           fsr1h	equ	0xFE2
  4640                           fsr1l	equ	0xFE1
  4641                           bsr	equ	0xFE0
  4642                           indf2	equ	0xFDF
  4643                           postinc2	equ	0xFDE
  4644                           fsr2h	equ	0xFDA
  4645                           fsr2l	equ	0xFD9
  4646                           status	equ	0xFD8
  4647                           
  4648 ;; *************** function _ReadEncoder *****************
  4649 ;; Defined at:
  4650 ;;		line 195 in file "user.c"
  4651 ;; Parameters:    Size  Location     Type
  4652 ;;		None
  4653 ;; Auto vars:     Size  Location     Type
  4654 ;;  NEW_ROT         2   57[COMRAM] int 
  4655 ;;  Bnew            2   55[COMRAM] int 
  4656 ;;  Anew            2   53[COMRAM] int 
  4657 ;;  New             2   51[COMRAM] int 
  4658 ;;  Old             2   49[COMRAM] int 
  4659 ;; Return value:  Size  Location     Type
  4660 ;;		None               void
  4661 ;; Registers used:
  4662 ;;		wreg, status,2, status,0, tblptrl, tblptrh, tblptru, prodl, cstack
  4663 ;; Tracked objects:
  4664 ;;		On entry : 0/0
  4665 ;;		On exit  : 0/0
  4666 ;;		Unchanged: 0/0
  4667 ;; Data sizes:     COMRAM   BANK0   BANK1   BANK2   BANK3   BANK4   BANK5
  4668 ;;      Params:         0       0       0       0       0       0       0
  4669 ;;      Locals:        10       0       0       0       0       0       0
  4670 ;;      Temps:          4       0       0       0       0       0       0
  4671 ;;      Totals:        14       0       0       0       0       0       0
  4672 ;;Total ram usage:       14 bytes
  4673 ;; Hardware stack levels used:    1
  4674 ;; Hardware stack levels required when called:    4
  4675 ;; This function calls:
  4676 ;;		___ftsub
  4677 ;;		i1___awtoft
  4678 ;;		i1___ftadd
  4679 ;;		i1___ftdiv
  4680 ;; This function is called by:
  4681 ;;		_low_isr
  4682 ;; This function uses a non-reentrant model
  4683 ;;
  4684                           
  4685                           	psect	text23
  4686  000B2E                     __ptext23:
  4687                           	opt stack 0
  4688  000B2E                     _ReadEncoder:
  4689                           	opt stack 22
  4690                           
  4691                           ;incstack = 0
  4692  000B2E  FFFF               	dw	65535
  4693                           
  4694                           ;user.c: 198: int Anew = PORTBbits.RB5;
  4695  000B30  AA81               	btfss	3969,5,c	;volatile
  4696  000B32  D003               	goto	i1u212_20
  4697  000B34  6A2E               	clrf	??_ReadEncoder& (0+255),c
  4698  000B36  2A2E               	incf	??_ReadEncoder& (0+255),f,c
  4699  000B38  D001               	goto	i1u212_28
  4700  000B3A                     i1u212_20:
  4701  000B3A  6A2E               	clrf	??_ReadEncoder& (0+255),c
  4702  000B3C                     i1u212_28:
  4703  000B3C  502E               	movf	??_ReadEncoder,w,c
  4704  000B3E  6E36               	movwf	ReadEncoder@Anew,c
  4705  000B40  6A37               	clrf	ReadEncoder@Anew+1,c
  4706                           
  4707                           ;user.c: 199: int Bnew = PORTBbits.RB4;
  4708  000B42  A881               	btfss	3969,4,c	;volatile
  4709  000B44  D003               	goto	i1u213_20
  4710  000B46  6A2E               	clrf	??_ReadEncoder& (0+255),c
  4711  000B48  2A2E               	incf	??_ReadEncoder& (0+255),f,c
  4712  000B4A  D001               	goto	i1u213_28
  4713  000B4C                     i1u213_20:
  4714  000B4C  6A2E               	clrf	??_ReadEncoder& (0+255),c
  4715  000B4E                     i1u213_28:
  4716  000B4E  502E               	movf	??_ReadEncoder,w,c
  4717  000B50  6E38               	movwf	ReadEncoder@Bnew,c
  4718  000B52  6A39               	clrf	ReadEncoder@Bnew+1,c
  4719                           
  4720                           ;user.c: 201: int Old = CHA*2 + CHB;
  4721  000B54  C052  F02E         	movff	_CHA,??_ReadEncoder
  4722  000B58  C053  F02F         	movff	_CHA+1,??_ReadEncoder+1
  4723  000B5C  90D8               	bcf	status,0,c
  4724  000B5E  362E               	rlcf	??_ReadEncoder,f,c
  4725  000B60  362F               	rlcf	??_ReadEncoder+1,f,c
  4726  000B62  5054               	movf	_CHB,w,c
  4727  000B64  242E               	addwf	??_ReadEncoder,w,c
  4728  000B66  6E32               	movwf	ReadEncoder@Old,c
  4729  000B68  5055               	movf	_CHB+1,w,c
  4730  000B6A  202F               	addwfc	??_ReadEncoder+1,w,c
  4731  000B6C  6E33               	movwf	ReadEncoder@Old+1,c
  4732                           
  4733                           ;user.c: 202: int New = Anew*2 + Bnew;
  4734  000B6E  C036  F02E         	movff	ReadEncoder@Anew,??_ReadEncoder
  4735  000B72  C037  F02F         	movff	ReadEncoder@Anew+1,??_ReadEncoder+1
  4736  000B76  90D8               	bcf	status,0,c
  4737  000B78  362E               	rlcf	??_ReadEncoder,f,c
  4738  000B7A  362F               	rlcf	??_ReadEncoder+1,f,c
  4739  000B7C  5038               	movf	ReadEncoder@Bnew,w,c
  4740  000B7E  242E               	addwf	??_ReadEncoder,w,c
  4741  000B80  6E34               	movwf	ReadEncoder@New,c
  4742  000B82  5039               	movf	ReadEncoder@Bnew+1,w,c
  4743  000B84  202F               	addwfc	??_ReadEncoder+1,w,c
  4744  000B86  6E35               	movwf	ReadEncoder@New+1,c
  4745                           
  4746                           ;user.c: 203: int NEW_ROT = QEM[Old*4+New];
  4747  000B88  C032  F02E         	movff	ReadEncoder@Old,??_ReadEncoder
  4748  000B8C  C033  F02F         	movff	ReadEncoder@Old+1,??_ReadEncoder+1
  4749  000B90  90D8               	bcf	status,0,c
  4750  000B92  362E               	rlcf	??_ReadEncoder,f,c
  4751  000B94  362F               	rlcf	??_ReadEncoder+1,f,c
  4752  000B96  90D8               	bcf	status,0,c
  4753  000B98  362E               	rlcf	??_ReadEncoder,f,c
  4754  000B9A  362F               	rlcf	??_ReadEncoder+1,f,c
  4755  000B9C  5034               	movf	ReadEncoder@New,w,c
  4756  000B9E  262E               	addwf	??_ReadEncoder,f,c
  4757  000BA0  5035               	movf	ReadEncoder@New+1,w,c
  4758  000BA2  222F               	addwfc	??_ReadEncoder+1,f,c
  4759  000BA4  90D8               	bcf	status,0,c
  4760  000BA6  362E               	rlcf	??_ReadEncoder,f,c
  4761  000BA8  362F               	rlcf	??_ReadEncoder+1,f,c
  4762  000BAA  0E01               	movlw	low _QEM
  4763  000BAC  242E               	addwf	??_ReadEncoder,w,c
  4764  000BAE  6EF6               	movwf	tblptrl,c
  4765  000BB0  0E06               	movlw	high _QEM
  4766  000BB2  202F               	addwfc	??_ReadEncoder+1,w,c
  4767  000BB4  6EF7               	movwf	tblptrh,c
  4768  000BB6                     	if	0	;There are less than 3 active tblptr bytes
  4769  000BB6                     	endif
  4770  000BB6  0009               	tblrd		*+
  4771  000BB8  FFFF               	dw	65535	; errata NOP
  4772  000BBA  CFF5 F03A          	movff	tablat,ReadEncoder@NEW_ROT
  4773  000BBE  000A               	tblrd		*-
  4774  000BC0  FFFF               	dw	65535	; errata NOP
  4775  000BC2  CFF5 F03B          	movff	tablat,ReadEncoder@NEW_ROT+1
  4776                           
  4777                           ;user.c: 205: if (NEW_ROT == 2)
  4778  000BC6  503A               	movf	ReadEncoder@NEW_ROT,w,c
  4779  000BC8  0A02               	xorlw	2
  4780  000BCA  103B               	iorwf	ReadEncoder@NEW_ROT+1,w,c
  4781  000BCC  A4D8               	btfss	status,2,c
  4782  000BCE  D005               	goto	i1l159
  4783                           
  4784                           ;user.c: 206: {
  4785                           ;user.c: 207: NEW_ROT = OLD_ROT;
  4786  000BD0  C058  F03A         	movff	_OLD_ROT,ReadEncoder@NEW_ROT
  4787  000BD4  C059  F03B         	movff	_OLD_ROT+1,ReadEncoder@NEW_ROT+1
  4788                           
  4789                           ;user.c: 208: }
  4790  000BD8  D008               	goto	i1l2147
  4791  000BDA                     i1l159:
  4792                           
  4793                           ;user.c: 209: else
  4794                           ;user.c: 210: {
  4795                           ;user.c: 211: CHA = Anew;
  4796  000BDA  C036  F052         	movff	ReadEncoder@Anew,_CHA
  4797  000BDE  C037  F053         	movff	ReadEncoder@Anew+1,_CHA+1
  4798                           
  4799                           ;user.c: 212: CHB = Bnew;
  4800  000BE2  C038  F054         	movff	ReadEncoder@Bnew,_CHB
  4801  000BE6  C039  F055         	movff	ReadEncoder@Bnew+1,_CHB+1
  4802  000BEA                     i1l2147:
  4803                           
  4804                           ;user.c: 213: }
  4805                           ;user.c: 215: if (NEW_ROT == 1)
  4806  000BEA  043A               	decf	ReadEncoder@NEW_ROT,w,c
  4807  000BEC  103B               	iorwf	ReadEncoder@NEW_ROT+1,w,c
  4808  000BEE  A4D8               	btfss	status,2,c
  4809  000BF0  D003               	goto	i1l2151
  4810                           
  4811                           ;user.c: 216: {
  4812                           ;user.c: 217: CWTurn += 1;
  4813  000BF2  4A56               	infsnz	_CWTurn,f,c
  4814  000BF4  2A57               	incf	_CWTurn+1,f,c
  4815                           
  4816                           ;user.c: 218: }
  4817  000BF6  D007               	goto	i1l2155
  4818  000BF8                     i1l2151:
  4819                           
  4820                           ;user.c: 219: else if (NEW_ROT == -1)
  4821  000BF8  283A               	incf	ReadEncoder@NEW_ROT,w,c
  4822  000BFA  B4D8               	btfsc	status,2,c
  4823  000BFC  283B               	incf	ReadEncoder@NEW_ROT+1,w,c
  4824  000BFE  A4D8               	btfss	status,2,c
  4825  000C00  D002               	goto	i1l2155
  4826                           
  4827                           ;user.c: 220: {
  4828                           ;user.c: 221: CCWTurn += 1;
  4829  000C02  4A50               	infsnz	_CCWTurn,f,c
  4830  000C04  2A51               	incf	_CCWTurn+1,f,c
  4831  000C06                     i1l2155:
  4832                           
  4833                           ;user.c: 222: }
  4834                           ;user.c: 224: if (CWTurn + CCWTurn == EncoderPoll)
  4835  000C06  0E23               	movlw	low _EncoderPoll
  4836  000C08  6EF6               	movwf	tblptrl,c
  4837  000C0A                     	if	0	;There is only one active tblptr byte
  4838  000C0A                     	endif
  4839  000C0A                     	if	0	;There are less than 3 active tblptr bytes
  4840  000C0A                     	endif
  4841  000C0A  0009               	tblrd		*+
  4842  000C0C  FFFF               	dw	65535	; errata NOP
  4843  000C0E  CFF5 F02E          	movff	tablat,??_ReadEncoder
  4844  000C12  0009               	tblrd		*+
  4845  000C14  FFFF               	dw	65535	; errata NOP
  4846  000C16  CFF5 F02F          	movff	tablat,??_ReadEncoder+1
  4847  000C1A  C056  F030         	movff	_CWTurn,??_ReadEncoder+2
  4848  000C1E  C057  F031         	movff	_CWTurn+1,??_ReadEncoder+3
  4849  000C22  5050               	movf	_CCWTurn,w,c
  4850  000C24  2630               	addwf	??_ReadEncoder+2,f,c
  4851  000C26  5051               	movf	_CCWTurn+1,w,c
  4852  000C28  2231               	addwfc	??_ReadEncoder+3,f,c
  4853  000C2A  502F               	movf	??_ReadEncoder+1,w,c
  4854  000C2C  1831               	xorwf	??_ReadEncoder+3,w,c
  4855  000C2E  E102               	bnz	i1u217_25
  4856  000C30  502E               	movf	??_ReadEncoder,w,c
  4857  000C32  1830               	xorwf	??_ReadEncoder+2,w,c
  4858  000C34                     i1u217_25:
  4859  000C34  A4D8               	btfss	status,2,c
  4860  000C36  D09B               	goto	i1l2171
  4861                           
  4862                           ;user.c: 225: {
  4863                           ;user.c: 226: if (CWTurn > CCWTurn)
  4864  000C38  5051               	movf	_CCWTurn+1,w,c
  4865  000C3A  0A80               	xorlw	128
  4866  000C3C  6E2E               	movwf	??_ReadEncoder& (0+255),c
  4867  000C3E  5056               	movf	_CWTurn,w,c
  4868  000C40  5C50               	subwf	_CCWTurn,w,c
  4869  000C42  5057               	movf	_CWTurn+1,w,c
  4870  000C44  0A80               	xorlw	128
  4871  000C46  582E               	subwfb	??_ReadEncoder& (0+255),w,c
  4872  000C48  B0D8               	btfsc	status,0,c
  4873  000C4A  D03E               	goto	i1l2163
  4874                           
  4875                           ;user.c: 227: {
  4876                           ;user.c: 228: PORTAbits.RA3 = 1;
  4877  000C4C  8680               	bsf	3968,3,c	;volatile
  4878                           
  4879                           ;user.c: 229: PORTAbits.RA2 = 0;
  4880  000C4E  9480               	bcf	3968,2,c	;volatile
  4881                           
  4882                           ;user.c: 230: PORTAbits.RA1 = 0;
  4883  000C50  9280               	bcf	3968,1,c	;volatile
  4884                           
  4885                           ;user.c: 231: PartialRot -= ((double)EncoderPoll)/CountPerRev;
  4886  000C52  C04D  F028         	movff	_PartialRot,___ftsub@f1
  4887  000C56  C04E  F029         	movff	_PartialRot+1,___ftsub@f1+1
  4888  000C5A  C04F  F02A         	movff	_PartialRot+2,___ftsub@f1+2
  4889  000C5E  0E21               	movlw	low _CountPerRev
  4890  000C60  6EF6               	movwf	tblptrl,c
  4891  000C62                     	if	0	;There is only one active tblptr byte
  4892  000C62                     	endif
  4893  000C62                     	if	0	;There are less than 3 active tblptr bytes
  4894  000C62                     	endif
  4895  000C62  0009               	tblrd		*+
  4896  000C64  FFFF               	dw	65535	; errata NOP
  4897  000C66  CFF5 F009          	movff	tablat,i1___awtoft@c
  4898  000C6A  000A               	tblrd		*-
  4899  000C6C  FFFF               	dw	65535	; errata NOP
  4900  000C6E  CFF5 F00A          	movff	tablat,i1___awtoft@c+1
  4901  000C72  ECCF  F00C         	call	i1___awtoft	;wreg free
  4902  000C76  C009  F010         	movff	?i1___awtoft,i1___ftdiv@f2
  4903  000C7A  C00A  F011         	movff	?i1___awtoft+1,i1___ftdiv@f2+1
  4904  000C7E  C00B  F012         	movff	?i1___awtoft+2,i1___ftdiv@f2+2
  4905  000C82  0E23               	movlw	low _EncoderPoll
  4906  000C84  6EF6               	movwf	tblptrl,c
  4907  000C86                     	if	0	;There is only one active tblptr byte
  4908  000C86                     	endif
  4909  000C86                     	if	0	;There are less than 3 active tblptr bytes
  4910  000C86                     	endif
  4911  000C86  0009               	tblrd		*+
  4912  000C88  FFFF               	dw	65535	; errata NOP
  4913  000C8A  CFF5 F009          	movff	tablat,i1___awtoft@c
  4914  000C8E  000A               	tblrd		*-
  4915  000C90  FFFF               	dw	65535	; errata NOP
  4916  000C92  CFF5 F00A          	movff	tablat,i1___awtoft@c+1
  4917  000C96  ECCF  F00C         	call	i1___awtoft	;wreg free
  4918  000C9A  C009  F00D         	movff	?i1___awtoft,i1___ftdiv@f1
  4919  000C9E  C00A  F00E         	movff	?i1___awtoft+1,i1___ftdiv@f1+1
  4920  000CA2  C00B  F00F         	movff	?i1___awtoft+2,i1___ftdiv@f1+2
  4921  000CA6  ECBF  F00A         	call	i1___ftdiv	;wreg free
  4922  000CAA  C00D  F02B         	movff	?i1___ftdiv,___ftsub@f2
  4923  000CAE  C00E  F02C         	movff	?i1___ftdiv+1,___ftsub@f2+1
  4924  000CB2  C00F  F02D         	movff	?i1___ftdiv+2,___ftsub@f2+2
  4925  000CB6  EC53  F00D         	call	___ftsub	;wreg free
  4926  000CBA  C028  F04D         	movff	?___ftsub,_PartialRot
  4927  000CBE  C029  F04E         	movff	?___ftsub+1,_PartialRot+1
  4928  000CC2  C02A  F04F         	movff	?___ftsub+2,_PartialRot+2
  4929                           
  4930                           ;user.c: 232: }
  4931  000CC6  D04B               	goto	i1l2169
  4932  000CC8                     i1l2163:
  4933                           
  4934                           ;user.c: 233: else if (CWTurn < CCWTurn)
  4935  000CC8  5057               	movf	_CWTurn+1,w,c
  4936  000CCA  0A80               	xorlw	128
  4937  000CCC  6E2E               	movwf	??_ReadEncoder& (0+255),c
  4938  000CCE  5050               	movf	_CCWTurn,w,c
  4939  000CD0  5C56               	subwf	_CWTurn,w,c
  4940  000CD2  5051               	movf	_CCWTurn+1,w,c
  4941  000CD4  0A80               	xorlw	128
  4942  000CD6  582E               	subwfb	??_ReadEncoder& (0+255),w,c
  4943  000CD8  B0D8               	btfsc	status,0,c
  4944  000CDA  D03E               	goto	i1l167
  4945                           
  4946                           ;user.c: 234: {
  4947                           ;user.c: 235: PORTAbits.RA3 = 0;
  4948  000CDC  9680               	bcf	3968,3,c	;volatile
  4949                           
  4950                           ;user.c: 236: PORTAbits.RA2 = 1;
  4951  000CDE  8480               	bsf	3968,2,c	;volatile
  4952                           
  4953                           ;user.c: 237: PORTAbits.RA1 = 0;
  4954  000CE0  9280               	bcf	3968,1,c	;volatile
  4955                           
  4956                           ;user.c: 238: PartialRot += ((double)EncoderPoll)/CountPerRev;
  4957  000CE2  C04D  F01C         	movff	_PartialRot,i1___ftadd@f1
  4958  000CE6  C04E  F01D         	movff	_PartialRot+1,i1___ftadd@f1+1
  4959  000CEA  C04F  F01E         	movff	_PartialRot+2,i1___ftadd@f1+2
  4960  000CEE  0E21               	movlw	low _CountPerRev
  4961  000CF0  6EF6               	movwf	tblptrl,c
  4962  000CF2                     	if	0	;There is only one active tblptr byte
  4963  000CF2                     	endif
  4964  000CF2                     	if	0	;There are less than 3 active tblptr bytes
  4965  000CF2                     	endif
  4966  000CF2  0009               	tblrd		*+
  4967  000CF4  FFFF               	dw	65535	; errata NOP
  4968  000CF6  CFF5 F009          	movff	tablat,i1___awtoft@c
  4969  000CFA  000A               	tblrd		*-
  4970  000CFC  FFFF               	dw	65535	; errata NOP
  4971  000CFE  CFF5 F00A          	movff	tablat,i1___awtoft@c+1
  4972  000D02  ECCF  F00C         	call	i1___awtoft	;wreg free
  4973  000D06  C009  F010         	movff	?i1___awtoft,i1___ftdiv@f2
  4974  000D0A  C00A  F011         	movff	?i1___awtoft+1,i1___ftdiv@f2+1
  4975  000D0E  C00B  F012         	movff	?i1___awtoft+2,i1___ftdiv@f2+2
  4976  000D12  0E23               	movlw	low _EncoderPoll
  4977  000D14  6EF6               	movwf	tblptrl,c
  4978  000D16                     	if	0	;There is only one active tblptr byte
  4979  000D16                     	endif
  4980  000D16                     	if	0	;There are less than 3 active tblptr bytes
  4981  000D16                     	endif
  4982  000D16  0009               	tblrd		*+
  4983  000D18  FFFF               	dw	65535	; errata NOP
  4984  000D1A  CFF5 F009          	movff	tablat,i1___awtoft@c
  4985  000D1E  000A               	tblrd		*-
  4986  000D20  FFFF               	dw	65535	; errata NOP
  4987  000D22  CFF5 F00A          	movff	tablat,i1___awtoft@c+1
  4988  000D26  ECCF  F00C         	call	i1___awtoft	;wreg free
  4989  000D2A  C009  F00D         	movff	?i1___awtoft,i1___ftdiv@f1
  4990  000D2E  C00A  F00E         	movff	?i1___awtoft+1,i1___ftdiv@f1+1
  4991  000D32  C00B  F00F         	movff	?i1___awtoft+2,i1___ftdiv@f1+2
  4992  000D36  ECBF  F00A         	call	i1___ftdiv	;wreg free
  4993  000D3A  C00D  F01F         	movff	?i1___ftdiv,i1___ftadd@f2
  4994  000D3E  C00E  F020         	movff	?i1___ftdiv+1,i1___ftadd@f2+1
  4995  000D42  C00F  F021         	movff	?i1___ftdiv+2,i1___ftadd@f2+2
  4996  000D46  ECBD  F006         	call	i1___ftadd	;wreg free
  4997  000D4A  C01C  F04D         	movff	?i1___ftadd,_PartialRot
  4998  000D4E  C01D  F04E         	movff	?i1___ftadd+1,_PartialRot+1
  4999  000D52  C01E  F04F         	movff	?i1___ftadd+2,_PartialRot+2
  5000                           
  5001                           ;user.c: 239: }
  5002  000D56  D003               	goto	i1l2169
  5003  000D58                     i1l167:
  5004                           
  5005                           ;user.c: 240: else
  5006                           ;user.c: 241: {
  5007                           ;user.c: 242: PORTAbits.RA3 = 0;
  5008  000D58  9680               	bcf	3968,3,c	;volatile
  5009                           
  5010                           ;user.c: 243: PORTAbits.RA2 = 0;
  5011  000D5A  9480               	bcf	3968,2,c	;volatile
  5012                           
  5013                           ;user.c: 244: PORTAbits.RA1 = 0;
  5014  000D5C  9280               	bcf	3968,1,c	;volatile
  5015  000D5E                     i1l2169:
  5016                           
  5017                           ;user.c: 245: }
  5018                           ;user.c: 247: CWTurn = 0;
  5019  000D5E  0E00               	movlw	0
  5020  000D60  6E57               	movwf	_CWTurn+1,c
  5021  000D62  0E00               	movlw	0
  5022  000D64  6E56               	movwf	_CWTurn,c
  5023                           
  5024                           ;user.c: 248: CCWTurn = 0;
  5025  000D66  0E00               	movlw	0
  5026  000D68  6E51               	movwf	_CCWTurn+1,c
  5027  000D6A  0E00               	movlw	0
  5028  000D6C  6E50               	movwf	_CCWTurn,c
  5029  000D6E                     i1l2171:
  5030                           
  5031                           ;user.c: 249: }
  5032                           ;user.c: 252: OLD_ROT = NEW_ROT;
  5033  000D6E  C03A  F058         	movff	ReadEncoder@NEW_ROT,_OLD_ROT
  5034  000D72  C03B  F059         	movff	ReadEncoder@NEW_ROT+1,_OLD_ROT+1
  5035  000D76  0012               	return	
  5036  000D78  FFFF               	dw	65535	; errata NOP
  5037  000D7A                     __end_of_ReadEncoder:
  5038                           	opt stack 0
  5039                           pclatu	equ	0xFFB
  5040                           pclath	equ	0xFFA
  5041                           tblptru	equ	0xFF8
  5042                           tblptrh	equ	0xFF7
  5043                           tblptrl	equ	0xFF6
  5044                           tablat	equ	0xFF5
  5045                           prodh	equ	0xFF4
  5046                           prodl	equ	0xFF3
  5047                           intcon	equ	0xFF2
  5048                           intcon2	equ	0xFF1
  5049                           postinc0	equ	0xFEE
  5050                           fsr0h	equ	0xFEA
  5051                           fsr0l	equ	0xFE9
  5052                           wreg	equ	0xFE8
  5053                           postinc1	equ	0xFE6
  5054                           postdec1	equ	0xFE5
  5055                           fsr1h	equ	0xFE2
  5056                           fsr1l	equ	0xFE1
  5057                           bsr	equ	0xFE0
  5058                           indf2	equ	0xFDF
  5059                           postinc2	equ	0xFDE
  5060                           fsr2h	equ	0xFDA
  5061                           fsr2l	equ	0xFD9
  5062                           status	equ	0xFD8
  5063                           
  5064 ;; *************** function i1___ftdiv *****************
  5065 ;; Defined at:
  5066 ;;		line 49 in file "/Applications/microchip/xc8/v1.33/sources/common/ftdiv.c"
  5067 ;; Parameters:    Size  Location     Type
  5068 ;;  f1              3   12[COMRAM] float 
  5069 ;;  f2              3   15[COMRAM] float 
  5070 ;; Auto vars:     Size  Location     Type
  5071 ;;  __ftdiv         3   22[COMRAM] float 
  5072 ;;  __ftdiv         1   26[COMRAM] unsigned char 
  5073 ;;  __ftdiv         1   25[COMRAM] unsigned char 
  5074 ;;  __ftdiv         1   21[COMRAM] unsigned char 
  5075 ;; Return value:  Size  Location     Type
  5076 ;;                  3   12[COMRAM] float 
  5077 ;; Registers used:
  5078 ;;		wreg, status,2, status,0, cstack
  5079 ;; Tracked objects:
  5080 ;;		On entry : 0/0
  5081 ;;		On exit  : 0/0
  5082 ;;		Unchanged: 0/0
  5083 ;; Data sizes:     COMRAM   BANK0   BANK1   BANK2   BANK3   BANK4   BANK5
  5084 ;;      Params:         6       0       0       0       0       0       0
  5085 ;;      Locals:         6       0       0       0       0       0       0
  5086 ;;      Temps:          3       0       0       0       0       0       0
  5087 ;;      Totals:        15       0       0       0       0       0       0
  5088 ;;Total ram usage:       15 bytes
  5089 ;; Hardware stack levels used:    1
  5090 ;; Hardware stack levels required when called:    2
  5091 ;; This function calls:
  5092 ;;		i1___ftpack
  5093 ;; This function is called by:
  5094 ;;		_low_isr
  5095 ;;		_ReadEncoder
  5096 ;; This function uses a non-reentrant model
  5097 ;;
  5098                           
  5099                           	psect	text24
  5100  00157E                     __ptext24:
  5101                           	opt stack 0
  5102  00157E                     i1___ftdiv:
  5103                           	opt stack 24
  5104                           
  5105                           ;incstack = 0
  5106  00157E  FFFF               	dw	65535
  5107  001580  C00F  F013         	movff	i1___ftdiv@f1+2,??i1___ftdiv
  5108  001584  6A14               	clrf	(??i1___ftdiv+1)& (0+255),c
  5109  001586  6A15               	clrf	(??i1___ftdiv+2)& (0+255),c
  5110  001588  340E               	rlcf	i1___ftdiv@f1+1,w,c
  5111  00158A  3613               	rlcf	??i1___ftdiv& (0+255),f,c
  5112  00158C  E301               	bnc	u200_21
  5113  00158E  8014               	bsf	(??i1___ftdiv+1)& (0+255),0,c
  5114  001590                     u200_21:
  5115  001590  5013               	movf	??i1___ftdiv,w,c
  5116  001592  6E1A               	movwf	i1___ftdiv@exp,c
  5117  001594  661A               	tstfsz	i1___ftdiv@exp& (0+255),c
  5118  001596  D001               	goto	i1l2015
  5119  001598  D00C               	goto	i1u203_20
  5120  00159A                     i1l2015:
  5121  00159A  C012  F013         	movff	i1___ftdiv@f2+2,??i1___ftdiv
  5122  00159E  6A14               	clrf	(??i1___ftdiv+1)& (0+255),c
  5123  0015A0  6A15               	clrf	(??i1___ftdiv+2)& (0+255),c
  5124  0015A2  3411               	rlcf	i1___ftdiv@f2+1,w,c
  5125  0015A4  3613               	rlcf	??i1___ftdiv& (0+255),f,c
  5126  0015A6  E301               	bnc	u202_21
  5127  0015A8  8014               	bsf	(??i1___ftdiv+1)& (0+255),0,c
  5128  0015AA                     u202_21:
  5129  0015AA  5013               	movf	??i1___ftdiv,w,c
  5130  0015AC  6E1B               	movwf	i1___ftdiv@sign,c
  5131  0015AE  661B               	tstfsz	i1___ftdiv@sign& (0+255),c
  5132  0015B0  D007               	goto	i1l2021
  5133  0015B2                     i1u203_20:
  5134  0015B2  0E00               	movlw	0
  5135  0015B4  6E0D               	movwf	?i1___ftdiv,c
  5136  0015B6  0E00               	movlw	0
  5137  0015B8  6E0E               	movwf	?i1___ftdiv+1,c
  5138  0015BA  0E00               	movlw	0
  5139  0015BC  6E0F               	movwf	?i1___ftdiv+2,c
  5140  0015BE  D04A               	goto	i1l607
  5141  0015C0                     i1l2021:
  5142  0015C0  0E00               	movlw	0
  5143  0015C2  6E17               	movwf	i1___ftdiv@f3,c
  5144  0015C4  0E00               	movlw	0
  5145  0015C6  6E18               	movwf	i1___ftdiv@f3+1,c
  5146  0015C8  0E00               	movlw	0
  5147  0015CA  6E19               	movwf	i1___ftdiv@f3+2,c
  5148  0015CC  501B               	movf	i1___ftdiv@sign,w,c
  5149  0015CE  0F89               	addlw	137
  5150  0015D0  5E1A               	subwf	i1___ftdiv@exp,f,c
  5151  0015D2  C00F  F01B         	movff	i1___ftdiv@f1+2,i1___ftdiv@sign
  5152  0015D6  5012               	movf	i1___ftdiv@f2+2,w,c
  5153  0015D8  1A1B               	xorwf	i1___ftdiv@sign,f,c
  5154  0015DA  0E80               	movlw	128
  5155  0015DC  161B               	andwf	i1___ftdiv@sign,f,c
  5156  0015DE  8E0E               	bsf	i1___ftdiv@f1+1,7,c
  5157  0015E0  0EFF               	movlw	255
  5158  0015E2  160D               	andwf	i1___ftdiv@f1,f,c
  5159  0015E4  0EFF               	movlw	255
  5160  0015E6  160E               	andwf	i1___ftdiv@f1+1,f,c
  5161  0015E8  0E00               	movlw	0
  5162  0015EA  160F               	andwf	i1___ftdiv@f1+2,f,c
  5163  0015EC  8E11               	bsf	i1___ftdiv@f2+1,7,c
  5164  0015EE  0EFF               	movlw	255
  5165  0015F0  1610               	andwf	i1___ftdiv@f2,f,c
  5166  0015F2  0EFF               	movlw	255
  5167  0015F4  1611               	andwf	i1___ftdiv@f2+1,f,c
  5168  0015F6  0E00               	movlw	0
  5169  0015F8  1612               	andwf	i1___ftdiv@f2+2,f,c
  5170  0015FA  0E18               	movlw	24
  5171  0015FC  6E16               	movwf	i1___ftdiv@cntr,c
  5172  0015FE                     i1l2041:
  5173  0015FE  90D8               	bcf	status,0,c
  5174  001600  3617               	rlcf	i1___ftdiv@f3,f,c
  5175  001602  3618               	rlcf	i1___ftdiv@f3+1,f,c
  5176  001604  3619               	rlcf	i1___ftdiv@f3+2,f,c
  5177  001606  5010               	movf	i1___ftdiv@f2,w,c
  5178  001608  5C0D               	subwf	i1___ftdiv@f1,w,c
  5179  00160A  5011               	movf	i1___ftdiv@f2+1,w,c
  5180  00160C  580E               	subwfb	i1___ftdiv@f1+1,w,c
  5181  00160E  5012               	movf	i1___ftdiv@f2+2,w,c
  5182  001610  580F               	subwfb	i1___ftdiv@f1+2,w,c
  5183  001612  A0D8               	btfss	status,0,c
  5184  001614  D007               	goto	i1l610
  5185  001616  5010               	movf	i1___ftdiv@f2,w,c
  5186  001618  5E0D               	subwf	i1___ftdiv@f1,f,c
  5187  00161A  5011               	movf	i1___ftdiv@f2+1,w,c
  5188  00161C  5A0E               	subwfb	i1___ftdiv@f1+1,f,c
  5189  00161E  5012               	movf	i1___ftdiv@f2+2,w,c
  5190  001620  5A0F               	subwfb	i1___ftdiv@f1+2,f,c
  5191  001622  8017               	bsf	i1___ftdiv@f3,0,c
  5192  001624                     i1l610:
  5193  001624  90D8               	bcf	status,0,c
  5194  001626  360D               	rlcf	i1___ftdiv@f1,f,c
  5195  001628  360E               	rlcf	i1___ftdiv@f1+1,f,c
  5196  00162A  360F               	rlcf	i1___ftdiv@f1+2,f,c
  5197  00162C  2E16               	decfsz	i1___ftdiv@cntr,f,c
  5198  00162E  D7E7               	goto	i1l2041
  5199  001630  C017  F001         	movff	i1___ftdiv@f3,i1___ftpack@arg
  5200  001634  C018  F002         	movff	i1___ftdiv@f3+1,i1___ftpack@arg+1
  5201  001638  C019  F003         	movff	i1___ftdiv@f3+2,i1___ftpack@arg+2
  5202  00163C  C01A  F004         	movff	i1___ftdiv@exp,i1___ftpack@exp
  5203  001640  C01B  F005         	movff	i1___ftdiv@sign,i1___ftpack@sign
  5204  001644  EC98  F00B         	call	i1___ftpack	;wreg free
  5205  001648  C001  F00D         	movff	?i1___ftpack,?i1___ftdiv
  5206  00164C  C002  F00E         	movff	?i1___ftpack+1,?i1___ftdiv+1
  5207  001650  C003  F00F         	movff	?i1___ftpack+2,?i1___ftdiv+2
  5208  001654                     i1l607:
  5209  001654  0012               	return	
  5210  001656  FFFF               	dw	65535	; errata NOP
  5211  001658                     __end_ofi1___ftdiv:
  5212                           	opt stack 0
  5213                           pclatu	equ	0xFFB
  5214                           pclath	equ	0xFFA
  5215                           tblptru	equ	0xFF8
  5216                           tblptrh	equ	0xFF7
  5217                           tblptrl	equ	0xFF6
  5218                           tablat	equ	0xFF5
  5219                           prodh	equ	0xFF4
  5220                           prodl	equ	0xFF3
  5221                           intcon	equ	0xFF2
  5222                           intcon2	equ	0xFF1
  5223                           postinc0	equ	0xFEE
  5224                           fsr0h	equ	0xFEA
  5225                           fsr0l	equ	0xFE9
  5226                           wreg	equ	0xFE8
  5227                           postinc1	equ	0xFE6
  5228                           postdec1	equ	0xFE5
  5229                           fsr1h	equ	0xFE2
  5230                           fsr1l	equ	0xFE1
  5231                           bsr	equ	0xFE0
  5232                           indf2	equ	0xFDF
  5233                           postinc2	equ	0xFDE
  5234                           fsr2h	equ	0xFDA
  5235                           fsr2l	equ	0xFD9
  5236                           status	equ	0xFD8
  5237                           
  5238 ;; *************** function i1___awtoft *****************
  5239 ;; Defined at:
  5240 ;;		line 32 in file "/Applications/microchip/xc8/v1.33/sources/common/awtoft.c"
  5241 ;; Parameters:    Size  Location     Type
  5242 ;;  c               2    8[COMRAM] int 
  5243 ;; Auto vars:     Size  Location     Type
  5244 ;;  __awtoft        1   11[COMRAM] unsigned char 
  5245 ;; Return value:  Size  Location     Type
  5246 ;;                  3    8[COMRAM] float 
  5247 ;; Registers used:
  5248 ;;		wreg, status,2, status,0, prodl, cstack
  5249 ;; Tracked objects:
  5250 ;;		On entry : 0/0
  5251 ;;		On exit  : 0/0
  5252 ;;		Unchanged: 0/0
  5253 ;; Data sizes:     COMRAM   BANK0   BANK1   BANK2   BANK3   BANK4   BANK5
  5254 ;;      Params:         3       0       0       0       0       0       0
  5255 ;;      Locals:         1       0       0       0       0       0       0
  5256 ;;      Temps:          0       0       0       0       0       0       0
  5257 ;;      Totals:         4       0       0       0       0       0       0
  5258 ;;Total ram usage:        4 bytes
  5259 ;; Hardware stack levels used:    1
  5260 ;; Hardware stack levels required when called:    2
  5261 ;; This function calls:
  5262 ;;		i1___ftpack
  5263 ;; This function is called by:
  5264 ;;		_ReadEncoder
  5265 ;; This function uses a non-reentrant model
  5266 ;;
  5267                           
  5268                           	psect	text25
  5269  00199E                     __ptext25:
  5270                           	opt stack 0
  5271  00199E                     i1___awtoft:
  5272                           	opt stack 23
  5273                           
  5274                           ;incstack = 0
  5275  00199E  FFFF               	dw	65535
  5276  0019A0  0E00               	movlw	0
  5277  0019A2  6E0C               	movwf	i1___awtoft@sign,c
  5278  0019A4  500A               	movf	i1___awtoft@c+1,w,c
  5279  0019A6  0A80               	xorlw	128
  5280  0019A8  6EF3               	movwf	prodl,c
  5281  0019AA  0E80               	movlw	128
  5282  0019AC  5CF3               	subwf	prodl,w,c
  5283  0019AE  0E00               	movlw	0
  5284  0019B0  B4D8               	btfsc	status,2,c
  5285  0019B2  5C09               	subwf	i1___awtoft@c,w,c
  5286  0019B4  B0D8               	btfsc	status,0,c
  5287  0019B6  D006               	goto	i1l2005
  5288  0019B8  6C09               	negf	i1___awtoft@c,c
  5289  0019BA  1E0A               	comf	i1___awtoft@c+1,f,c
  5290  0019BC  B0D8               	btfsc	status,0,c
  5291  0019BE  2A0A               	incf	i1___awtoft@c+1,f,c
  5292  0019C0  0E01               	movlw	1
  5293  0019C2  6E0C               	movwf	i1___awtoft@sign,c
  5294  0019C4                     i1l2005:
  5295  0019C4  C009  F001         	movff	i1___awtoft@c,i1___ftpack@arg
  5296  0019C8  C00A  F002         	movff	i1___awtoft@c+1,i1___ftpack@arg+1
  5297  0019CC  6A03               	clrf	i1___ftpack@arg+2,c
  5298  0019CE  0E8E               	movlw	142
  5299  0019D0  6E04               	movwf	i1___ftpack@exp,c
  5300  0019D2  C00C  F005         	movff	i1___awtoft@sign,i1___ftpack@sign
  5301  0019D6  EC98  F00B         	call	i1___ftpack	;wreg free
  5302  0019DA  C001  F009         	movff	?i1___ftpack,?i1___awtoft
  5303  0019DE  C002  F00A         	movff	?i1___ftpack+1,?i1___awtoft+1
  5304  0019E2  C003  F00B         	movff	?i1___ftpack+2,?i1___awtoft+2
  5305  0019E6  0012               	return	
  5306  0019E8  FFFF               	dw	65535	; errata NOP
  5307  0019EA                     __end_ofi1___awtoft:
  5308                           	opt stack 0
  5309                           pclatu	equ	0xFFB
  5310                           pclath	equ	0xFFA
  5311                           tblptru	equ	0xFF8
  5312                           tblptrh	equ	0xFF7
  5313                           tblptrl	equ	0xFF6
  5314                           tablat	equ	0xFF5
  5315                           prodh	equ	0xFF4
  5316                           prodl	equ	0xFF3
  5317                           intcon	equ	0xFF2
  5318                           intcon2	equ	0xFF1
  5319                           postinc0	equ	0xFEE
  5320                           fsr0h	equ	0xFEA
  5321                           fsr0l	equ	0xFE9
  5322                           wreg	equ	0xFE8
  5323                           postinc1	equ	0xFE6
  5324                           postdec1	equ	0xFE5
  5325                           fsr1h	equ	0xFE2
  5326                           fsr1l	equ	0xFE1
  5327                           bsr	equ	0xFE0
  5328                           indf2	equ	0xFDF
  5329                           postinc2	equ	0xFDE
  5330                           fsr2h	equ	0xFDA
  5331                           fsr2l	equ	0xFD9
  5332                           status	equ	0xFD8
  5333                           
  5334 ;; *************** function ___ftsub *****************
  5335 ;; Defined at:
  5336 ;;		line 20 in file "/Applications/microchip/xc8/v1.33/sources/common/ftsub.c"
  5337 ;; Parameters:    Size  Location     Type
  5338 ;;  f1              3   39[COMRAM] float 
  5339 ;;  f2              3   42[COMRAM] float 
  5340 ;; Auto vars:     Size  Location     Type
  5341 ;;		None
  5342 ;; Return value:  Size  Location     Type
  5343 ;;                  3   39[COMRAM] float 
  5344 ;; Registers used:
  5345 ;;		wreg, status,2, status,0, cstack
  5346 ;; Tracked objects:
  5347 ;;		On entry : 0/0
  5348 ;;		On exit  : 0/0
  5349 ;;		Unchanged: 0/0
  5350 ;; Data sizes:     COMRAM   BANK0   BANK1   BANK2   BANK3   BANK4   BANK5
  5351 ;;      Params:         6       0       0       0       0       0       0
  5352 ;;      Locals:         0       0       0       0       0       0       0
  5353 ;;      Temps:          0       0       0       0       0       0       0
  5354 ;;      Totals:         6       0       0       0       0       0       0
  5355 ;;Total ram usage:        6 bytes
  5356 ;; Hardware stack levels used:    1
  5357 ;; Hardware stack levels required when called:    3
  5358 ;; This function calls:
  5359 ;;		i1___ftadd
  5360 ;; This function is called by:
  5361 ;;		_ReadEncoder
  5362 ;; This function uses a non-reentrant model
  5363 ;;
  5364                           
  5365                           	psect	text26
  5366  001AA6                     __ptext26:
  5367                           	opt stack 0
  5368  001AA6                     ___ftsub:
  5369                           	opt stack 22
  5370                           
  5371                           ;incstack = 0
  5372  001AA6  FFFF               	dw	65535
  5373  001AA8  0E00               	movlw	0
  5374  001AAA  1A2B               	xorwf	___ftsub@f2,f,c
  5375  001AAC  0E00               	movlw	0
  5376  001AAE  1A2C               	xorwf	___ftsub@f2+1,f,c
  5377  001AB0  0E80               	movlw	128
  5378  001AB2  1A2D               	xorwf	___ftsub@f2+2,f,c
  5379  001AB4  C028  F01C         	movff	___ftsub@f1,i1___ftadd@f1
  5380  001AB8  C029  F01D         	movff	___ftsub@f1+1,i1___ftadd@f1+1
  5381  001ABC  C02A  F01E         	movff	___ftsub@f1+2,i1___ftadd@f1+2
  5382  001AC0  C02B  F01F         	movff	___ftsub@f2,i1___ftadd@f2
  5383  001AC4  C02C  F020         	movff	___ftsub@f2+1,i1___ftadd@f2+1
  5384  001AC8  C02D  F021         	movff	___ftsub@f2+2,i1___ftadd@f2+2
  5385  001ACC  ECBD  F006         	call	i1___ftadd	;wreg free
  5386  001AD0  C01C  F028         	movff	?i1___ftadd,?___ftsub
  5387  001AD4  C01D  F029         	movff	?i1___ftadd+1,?___ftsub+1
  5388  001AD8  C01E  F02A         	movff	?i1___ftadd+2,?___ftsub+2
  5389  001ADC  0012               	return	
  5390  001ADE  FFFF               	dw	65535	; errata NOP
  5391  001AE0                     __end_of___ftsub:
  5392                           	opt stack 0
  5393                           pclatu	equ	0xFFB
  5394                           pclath	equ	0xFFA
  5395                           tblptru	equ	0xFF8
  5396                           tblptrh	equ	0xFF7
  5397                           tblptrl	equ	0xFF6
  5398                           tablat	equ	0xFF5
  5399                           prodh	equ	0xFF4
  5400                           prodl	equ	0xFF3
  5401                           intcon	equ	0xFF2
  5402                           intcon2	equ	0xFF1
  5403                           postinc0	equ	0xFEE
  5404                           fsr0h	equ	0xFEA
  5405                           fsr0l	equ	0xFE9
  5406                           wreg	equ	0xFE8
  5407                           postinc1	equ	0xFE6
  5408                           postdec1	equ	0xFE5
  5409                           fsr1h	equ	0xFE2
  5410                           fsr1l	equ	0xFE1
  5411                           bsr	equ	0xFE0
  5412                           indf2	equ	0xFDF
  5413                           postinc2	equ	0xFDE
  5414                           fsr2h	equ	0xFDA
  5415                           fsr2l	equ	0xFD9
  5416                           status	equ	0xFD8
  5417                           
  5418 ;; *************** function i1___ftadd *****************
  5419 ;; Defined at:
  5420 ;;		line 86 in file "/Applications/microchip/xc8/v1.33/sources/common/ftadd.c"
  5421 ;; Parameters:    Size  Location     Type
  5422 ;;  f1              3   27[COMRAM] float 
  5423 ;;  f2              3   30[COMRAM] float 
  5424 ;; Auto vars:     Size  Location     Type
  5425 ;;  __ftadd         1   38[COMRAM] unsigned char 
  5426 ;;  __ftadd         1   37[COMRAM] unsigned char 
  5427 ;;  __ftadd         1   36[COMRAM] unsigned char 
  5428 ;; Return value:  Size  Location     Type
  5429 ;;                  3   27[COMRAM] float 
  5430 ;; Registers used:
  5431 ;;		wreg, status,2, status,0, cstack
  5432 ;; Tracked objects:
  5433 ;;		On entry : 0/0
  5434 ;;		On exit  : 0/0
  5435 ;;		Unchanged: 0/0
  5436 ;; Data sizes:     COMRAM   BANK0   BANK1   BANK2   BANK3   BANK4   BANK5
  5437 ;;      Params:         6       0       0       0       0       0       0
  5438 ;;      Locals:         3       0       0       0       0       0       0
  5439 ;;      Temps:          3       0       0       0       0       0       0
  5440 ;;      Totals:        12       0       0       0       0       0       0
  5441 ;;Total ram usage:       12 bytes
  5442 ;; Hardware stack levels used:    1
  5443 ;; Hardware stack levels required when called:    2
  5444 ;; This function calls:
  5445 ;;		i1___ftpack
  5446 ;; This function is called by:
  5447 ;;		_ReadEncoder
  5448 ;;		___ftsub
  5449 ;; This function uses a non-reentrant model
  5450 ;;
  5451                           
  5452                           	psect	text27
  5453  000D7A                     __ptext27:
  5454                           	opt stack 0
  5455  000D7A                     i1___ftadd:
  5456                           	opt stack 23
  5457                           
  5458                           ;incstack = 0
  5459  000D7A  FFFF               	dw	65535
  5460  000D7C  C01E  F022         	movff	i1___ftadd@f1+2,??i1___ftadd
  5461  000D80  6A23               	clrf	(??i1___ftadd+1)& (0+255),c
  5462  000D82  6A24               	clrf	(??i1___ftadd+2)& (0+255),c
  5463  000D84  341D               	rlcf	i1___ftadd@f1+1,w,c
  5464  000D86  3622               	rlcf	??i1___ftadd& (0+255),f,c
  5465  000D88  E301               	bnc	u129_21
  5466  000D8A  8023               	bsf	(??i1___ftadd+1)& (0+255),0,c
  5467  000D8C                     u129_21:
  5468  000D8C  5022               	movf	??i1___ftadd,w,c
  5469  000D8E  6E27               	movwf	i1___ftadd@exp1,c
  5470  000D90  C021  F022         	movff	i1___ftadd@f2+2,??i1___ftadd
  5471  000D94  6A23               	clrf	(??i1___ftadd+1)& (0+255),c
  5472  000D96  6A24               	clrf	(??i1___ftadd+2)& (0+255),c
  5473  000D98  3420               	rlcf	i1___ftadd@f2+1,w,c
  5474  000D9A  3622               	rlcf	??i1___ftadd& (0+255),f,c
  5475  000D9C  E301               	bnc	u130_21
  5476  000D9E  8023               	bsf	(??i1___ftadd+1)& (0+255),0,c
  5477  000DA0                     u130_21:
  5478  000DA0  5022               	movf	??i1___ftadd,w,c
  5479  000DA2  6E26               	movwf	i1___ftadd@exp2,c
  5480  000DA4  5027               	movf	i1___ftadd@exp1,w,c
  5481  000DA6  B4D8               	btfsc	status,2,c
  5482  000DA8  D00C               	goto	i1l575
  5483  000DAA  5026               	movf	i1___ftadd@exp2,w,c
  5484  000DAC  5C27               	subwf	i1___ftadd@exp1,w,c
  5485  000DAE  B0D8               	btfsc	status,0,c
  5486  000DB0  D00F               	goto	i1l1623
  5487  000DB2  5027               	movf	i1___ftadd@exp1,w,c
  5488  000DB4  0800               	sublw	0
  5489  000DB6  2426               	addwf	i1___ftadd@exp2,w,c
  5490  000DB8  6E22               	movwf	??i1___ftadd& (0+255),c
  5491  000DBA  0E19               	movlw	25
  5492  000DBC  5C22               	subwf	??i1___ftadd,w,c
  5493  000DBE  A0D8               	btfss	status,0,c
  5494  000DC0  D007               	goto	i1l1623
  5495  000DC2                     i1l575:
  5496  000DC2  C01F  F01C         	movff	i1___ftadd@f2,?i1___ftadd
  5497  000DC6  C020  F01D         	movff	i1___ftadd@f2+1,?i1___ftadd+1
  5498  000DCA  C021  F01E         	movff	i1___ftadd@f2+2,?i1___ftadd+2
  5499  000DCE  D0AB               	goto	i1l576
  5500  000DD0                     i1l1623:
  5501  000DD0  5026               	movf	i1___ftadd@exp2,w,c
  5502  000DD2  B4D8               	btfsc	status,2,c
  5503  000DD4  D00C               	goto	i1l579
  5504  000DD6  5027               	movf	i1___ftadd@exp1,w,c
  5505  000DD8  5C26               	subwf	i1___ftadd@exp2,w,c
  5506  000DDA  B0D8               	btfsc	status,0,c
  5507  000DDC  D00F               	goto	i1l1629
  5508  000DDE  5026               	movf	i1___ftadd@exp2,w,c
  5509  000DE0  0800               	sublw	0
  5510  000DE2  2427               	addwf	i1___ftadd@exp1,w,c
  5511  000DE4  6E22               	movwf	??i1___ftadd& (0+255),c
  5512  000DE6  0E19               	movlw	25
  5513  000DE8  5C22               	subwf	??i1___ftadd,w,c
  5514  000DEA  A0D8               	btfss	status,0,c
  5515  000DEC  D007               	goto	i1l1629
  5516  000DEE                     i1l579:
  5517  000DEE  C01C  F01C         	movff	i1___ftadd@f1,?i1___ftadd
  5518  000DF2  C01D  F01D         	movff	i1___ftadd@f1+1,?i1___ftadd+1
  5519  000DF6  C01E  F01E         	movff	i1___ftadd@f1+2,?i1___ftadd+2
  5520  000DFA  D095               	goto	i1l576
  5521  000DFC                     i1l1629:
  5522  000DFC  0E06               	movlw	6
  5523  000DFE  6E25               	movwf	i1___ftadd@sign,c
  5524  000E00  BE1E               	btfsc	i1___ftadd@f1+2,7,c
  5525  000E02  8E25               	bsf	i1___ftadd@sign,7,c
  5526  000E04  BE21               	btfsc	i1___ftadd@f2+2,7,c
  5527  000E06  8C25               	bsf	i1___ftadd@sign,6,c
  5528  000E08  8E1D               	bsf	i1___ftadd@f1+1,7,c
  5529  000E0A  0EFF               	movlw	255
  5530  000E0C  161C               	andwf	i1___ftadd@f1,f,c
  5531  000E0E  0EFF               	movlw	255
  5532  000E10  161D               	andwf	i1___ftadd@f1+1,f,c
  5533  000E12  0E00               	movlw	0
  5534  000E14  161E               	andwf	i1___ftadd@f1+2,f,c
  5535  000E16  8E20               	bsf	i1___ftadd@f2+1,7,c
  5536  000E18  0EFF               	movlw	255
  5537  000E1A  161F               	andwf	i1___ftadd@f2,f,c
  5538  000E1C  0EFF               	movlw	255
  5539  000E1E  1620               	andwf	i1___ftadd@f2+1,f,c
  5540  000E20  0E00               	movlw	0
  5541  000E22  1621               	andwf	i1___ftadd@f2+2,f,c
  5542  000E24  5026               	movf	i1___ftadd@exp2,w,c
  5543  000E26  5C27               	subwf	i1___ftadd@exp1,w,c
  5544  000E28  B0D8               	btfsc	status,0,c
  5545  000E2A  D01A               	goto	i1l1655
  5546  000E2C                     i1l1645:
  5547  000E2C  90D8               	bcf	status,0,c
  5548  000E2E  361F               	rlcf	i1___ftadd@f2,f,c
  5549  000E30  3620               	rlcf	i1___ftadd@f2+1,f,c
  5550  000E32  3621               	rlcf	i1___ftadd@f2+2,f,c
  5551  000E34  0626               	decf	i1___ftadd@exp2,f,c
  5552  000E36  5026               	movf	i1___ftadd@exp2,w,c
  5553  000E38  1827               	xorwf	i1___ftadd@exp1,w,c
  5554  000E3A  B4D8               	btfsc	status,2,c
  5555  000E3C  D00D               	goto	i1l1653
  5556  000E3E  0625               	decf	i1___ftadd@sign,f,c
  5557  000E40  C025  F022         	movff	i1___ftadd@sign,??i1___ftadd
  5558  000E44  0E07               	movlw	7
  5559  000E46  1622               	andwf	??i1___ftadd,f,c
  5560  000E48  B4D8               	btfsc	status,2,c
  5561  000E4A  D006               	goto	i1l1653
  5562  000E4C  D7EF               	goto	i1l1645
  5563  000E4E                     i1l1651:
  5564  000E4E  90D8               	bcf	status,0,c
  5565  000E50  321E               	rrcf	i1___ftadd@f1+2,f,c
  5566  000E52  321D               	rrcf	i1___ftadd@f1+1,f,c
  5567  000E54  321C               	rrcf	i1___ftadd@f1,f,c
  5568  000E56  2A27               	incf	i1___ftadd@exp1,f,c
  5569  000E58                     i1l1653:
  5570  000E58  5026               	movf	i1___ftadd@exp2,w,c
  5571  000E5A  6227               	cpfseq	i1___ftadd@exp1,c
  5572  000E5C  D7F8               	goto	i1l1651
  5573  000E5E  D01D               	goto	i1l590
  5574  000E60                     i1l1655:
  5575  000E60  5027               	movf	i1___ftadd@exp1,w,c
  5576  000E62  5C26               	subwf	i1___ftadd@exp2,w,c
  5577  000E64  B0D8               	btfsc	status,0,c
  5578  000E66  D019               	goto	i1l590
  5579  000E68                     i1l1657:
  5580  000E68  90D8               	bcf	status,0,c
  5581  000E6A  361C               	rlcf	i1___ftadd@f1,f,c
  5582  000E6C  361D               	rlcf	i1___ftadd@f1+1,f,c
  5583  000E6E  361E               	rlcf	i1___ftadd@f1+2,f,c
  5584  000E70  0627               	decf	i1___ftadd@exp1,f,c
  5585  000E72  5026               	movf	i1___ftadd@exp2,w,c
  5586  000E74  1827               	xorwf	i1___ftadd@exp1,w,c
  5587  000E76  B4D8               	btfsc	status,2,c
  5588  000E78  D00D               	goto	i1l1665
  5589  000E7A  0625               	decf	i1___ftadd@sign,f,c
  5590  000E7C  C025  F022         	movff	i1___ftadd@sign,??i1___ftadd
  5591  000E80  0E07               	movlw	7
  5592  000E82  1622               	andwf	??i1___ftadd,f,c
  5593  000E84  B4D8               	btfsc	status,2,c
  5594  000E86  D006               	goto	i1l1665
  5595  000E88  D7EF               	goto	i1l1657
  5596  000E8A                     i1l1663:
  5597  000E8A  90D8               	bcf	status,0,c
  5598  000E8C  3221               	rrcf	i1___ftadd@f2+2,f,c
  5599  000E8E  3220               	rrcf	i1___ftadd@f2+1,f,c
  5600  000E90  321F               	rrcf	i1___ftadd@f2,f,c
  5601  000E92  2A26               	incf	i1___ftadd@exp2,f,c
  5602  000E94                     i1l1665:
  5603  000E94  5026               	movf	i1___ftadd@exp2,w,c
  5604  000E96  6227               	cpfseq	i1___ftadd@exp1,c
  5605  000E98  D7F8               	goto	i1l1663
  5606  000E9A                     i1l590:
  5607  000E9A  AE25               	btfss	i1___ftadd@sign,7,c
  5608  000E9C  D00C               	goto	i1l599
  5609  000E9E  0EFF               	movlw	255
  5610  000EA0  1A1C               	xorwf	i1___ftadd@f1,f,c
  5611  000EA2  0EFF               	movlw	255
  5612  000EA4  1A1D               	xorwf	i1___ftadd@f1+1,f,c
  5613  000EA6  0EFF               	movlw	255
  5614  000EA8  1A1E               	xorwf	i1___ftadd@f1+2,f,c
  5615  000EAA  0E01               	movlw	1
  5616  000EAC  261C               	addwf	i1___ftadd@f1,f,c
  5617  000EAE  0E00               	movlw	0
  5618  000EB0  221D               	addwfc	i1___ftadd@f1+1,f,c
  5619  000EB2  0E00               	movlw	0
  5620  000EB4  221E               	addwfc	i1___ftadd@f1+2,f,c
  5621  000EB6                     i1l599:
  5622  000EB6  AC25               	btfss	i1___ftadd@sign,6,c
  5623  000EB8  D00C               	goto	i1l1671
  5624  000EBA  0EFF               	movlw	255
  5625  000EBC  1A1F               	xorwf	i1___ftadd@f2,f,c
  5626  000EBE  0EFF               	movlw	255
  5627  000EC0  1A20               	xorwf	i1___ftadd@f2+1,f,c
  5628  000EC2  0EFF               	movlw	255
  5629  000EC4  1A21               	xorwf	i1___ftadd@f2+2,f,c
  5630  000EC6  0E01               	movlw	1
  5631  000EC8  261F               	addwf	i1___ftadd@f2,f,c
  5632  000ECA  0E00               	movlw	0
  5633  000ECC  2220               	addwfc	i1___ftadd@f2+1,f,c
  5634  000ECE  0E00               	movlw	0
  5635  000ED0  2221               	addwfc	i1___ftadd@f2+2,f,c
  5636  000ED2                     i1l1671:
  5637  000ED2  0E00               	movlw	0
  5638  000ED4  6E25               	movwf	i1___ftadd@sign,c
  5639  000ED6  501C               	movf	i1___ftadd@f1,w,c
  5640  000ED8  261F               	addwf	i1___ftadd@f2,f,c
  5641  000EDA  501D               	movf	i1___ftadd@f1+1,w,c
  5642  000EDC  2220               	addwfc	i1___ftadd@f2+1,f,c
  5643  000EDE  501E               	movf	i1___ftadd@f1+2,w,c
  5644  000EE0  2221               	addwfc	i1___ftadd@f2+2,f,c
  5645  000EE2  AE21               	btfss	i1___ftadd@f2+2,7,c
  5646  000EE4  D00E               	goto	i1l1681
  5647  000EE6  0EFF               	movlw	255
  5648  000EE8  1A1F               	xorwf	i1___ftadd@f2,f,c
  5649  000EEA  0EFF               	movlw	255
  5650  000EEC  1A20               	xorwf	i1___ftadd@f2+1,f,c
  5651  000EEE  0EFF               	movlw	255
  5652  000EF0  1A21               	xorwf	i1___ftadd@f2+2,f,c
  5653  000EF2  0E01               	movlw	1
  5654  000EF4  261F               	addwf	i1___ftadd@f2,f,c
  5655  000EF6  0E00               	movlw	0
  5656  000EF8  2220               	addwfc	i1___ftadd@f2+1,f,c
  5657  000EFA  0E00               	movlw	0
  5658  000EFC  2221               	addwfc	i1___ftadd@f2+2,f,c
  5659  000EFE  0E01               	movlw	1
  5660  000F00  6E25               	movwf	i1___ftadd@sign,c
  5661  000F02                     i1l1681:
  5662  000F02  C01F  F001         	movff	i1___ftadd@f2,i1___ftpack@arg
  5663  000F06  C020  F002         	movff	i1___ftadd@f2+1,i1___ftpack@arg+1
  5664  000F0A  C021  F003         	movff	i1___ftadd@f2+2,i1___ftpack@arg+2
  5665  000F0E  C027  F004         	movff	i1___ftadd@exp1,i1___ftpack@exp
  5666  000F12  C025  F005         	movff	i1___ftadd@sign,i1___ftpack@sign
  5667  000F16  EC98  F00B         	call	i1___ftpack	;wreg free
  5668  000F1A  C001  F01C         	movff	?i1___ftpack,?i1___ftadd
  5669  000F1E  C002  F01D         	movff	?i1___ftpack+1,?i1___ftadd+1
  5670  000F22  C003  F01E         	movff	?i1___ftpack+2,?i1___ftadd+2
  5671  000F26                     i1l576:
  5672  000F26  0012               	return	
  5673  000F28  FFFF               	dw	65535	; errata NOP
  5674  000F2A                     __end_ofi1___ftadd:
  5675                           	opt stack 0
  5676                           pclatu	equ	0xFFB
  5677                           pclath	equ	0xFFA
  5678                           tblptru	equ	0xFF8
  5679                           tblptrh	equ	0xFF7
  5680                           tblptrl	equ	0xFF6
  5681                           tablat	equ	0xFF5
  5682                           prodh	equ	0xFF4
  5683                           prodl	equ	0xFF3
  5684                           intcon	equ	0xFF2
  5685                           intcon2	equ	0xFF1
  5686                           postinc0	equ	0xFEE
  5687                           fsr0h	equ	0xFEA
  5688                           fsr0l	equ	0xFE9
  5689                           wreg	equ	0xFE8
  5690                           postinc1	equ	0xFE6
  5691                           postdec1	equ	0xFE5
  5692                           fsr1h	equ	0xFE2
  5693                           fsr1l	equ	0xFE1
  5694                           bsr	equ	0xFE0
  5695                           indf2	equ	0xFDF
  5696                           postinc2	equ	0xFDE
  5697                           fsr2h	equ	0xFDA
  5698                           fsr2l	equ	0xFD9
  5699                           status	equ	0xFD8
  5700                           
  5701 ;; *************** function i1___ftpack *****************
  5702 ;; Defined at:
  5703 ;;		line 62 in file "/Applications/microchip/xc8/v1.33/sources/common/float.c"
  5704 ;; Parameters:    Size  Location     Type
  5705 ;;  arg             3    0[COMRAM] unsigned um
  5706 ;;  exp             1    3[COMRAM] unsigned char 
  5707 ;;  sign            1    4[COMRAM] unsigned char 
  5708 ;; Auto vars:     Size  Location     Type
  5709 ;;		None
  5710 ;; Return value:  Size  Location     Type
  5711 ;;                  3    0[COMRAM] float 
  5712 ;; Registers used:
  5713 ;;		wreg, status,2, status,0
  5714 ;; Tracked objects:
  5715 ;;		On entry : 0/0
  5716 ;;		On exit  : 0/0
  5717 ;;		Unchanged: 0/0
  5718 ;; Data sizes:     COMRAM   BANK0   BANK1   BANK2   BANK3   BANK4   BANK5
  5719 ;;      Params:         5       0       0       0       0       0       0
  5720 ;;      Locals:         0       0       0       0       0       0       0
  5721 ;;      Temps:          3       0       0       0       0       0       0
  5722 ;;      Totals:         8       0       0       0       0       0       0
  5723 ;;Total ram usage:        8 bytes
  5724 ;; Hardware stack levels used:    1
  5725 ;; Hardware stack levels required when called:    1
  5726 ;; This function calls:
  5727 ;;		Nothing
  5728 ;; This function is called by:
  5729 ;;		i1___awtoft
  5730 ;;		i1___ftadd
  5731 ;;		i1___ftdiv
  5732 ;; This function uses a non-reentrant model
  5733 ;;
  5734                           
  5735                           	psect	text28
  5736  001730                     __ptext28:
  5737                           	opt stack 0
  5738  001730                     i1___ftpack:
  5739                           	opt stack 24
  5740                           
  5741                           ;incstack = 0
  5742  001730  FFFF               	dw	65535
  5743  001732  5004               	movf	i1___ftpack@exp,w,c
  5744  001734  B4D8               	btfsc	status,2,c
  5745  001736  D005               	goto	i1l1539
  5746  001738  5001               	movf	i1___ftpack@arg,w,c
  5747  00173A  1002               	iorwf	i1___ftpack@arg+1,w,c
  5748  00173C  1003               	iorwf	i1___ftpack@arg+2,w,c
  5749  00173E  A4D8               	btfss	status,2,c
  5750  001740  D00C               	goto	i1l1545
  5751  001742                     i1l1539:
  5752  001742  0E00               	movlw	0
  5753  001744  6E01               	movwf	?i1___ftpack,c
  5754  001746  0E00               	movlw	0
  5755  001748  6E02               	movwf	?i1___ftpack+1,c
  5756  00174A  0E00               	movlw	0
  5757  00174C  6E03               	movwf	?i1___ftpack+2,c
  5758  00174E  D044               	goto	i1l538
  5759  001750                     i1l1543:
  5760  001750  2A04               	incf	i1___ftpack@exp,f,c
  5761  001752  90D8               	bcf	status,0,c
  5762  001754  3203               	rrcf	i1___ftpack@arg+2,f,c
  5763  001756  3202               	rrcf	i1___ftpack@arg+1,f,c
  5764  001758  3201               	rrcf	i1___ftpack@arg,f,c
  5765  00175A                     i1l1545:
  5766  00175A  0E00               	movlw	0
  5767  00175C  1401               	andwf	i1___ftpack@arg,w,c
  5768  00175E  6E06               	movwf	??i1___ftpack& (0+255),c
  5769  001760  0E00               	movlw	0
  5770  001762  1402               	andwf	i1___ftpack@arg+1,w,c
  5771  001764  6E07               	movwf	(??i1___ftpack+1)& (0+255),c
  5772  001766  0EFE               	movlw	254
  5773  001768  1403               	andwf	i1___ftpack@arg+2,w,c
  5774  00176A  6E08               	movwf	(??i1___ftpack+2)& (0+255),c
  5775  00176C  5006               	movf	??i1___ftpack,w,c
  5776  00176E  1007               	iorwf	??i1___ftpack+1,w,c
  5777  001770  1008               	iorwf	??i1___ftpack+2,w,c
  5778  001772  B4D8               	btfsc	status,2,c
  5779  001774  D00C               	goto	i1l1551
  5780  001776  D7EC               	goto	i1l1543
  5781  001778                     i1l1547:
  5782  001778  2A04               	incf	i1___ftpack@exp,f,c
  5783  00177A  0E01               	movlw	1
  5784  00177C  2601               	addwf	i1___ftpack@arg,f,c
  5785  00177E  0E00               	movlw	0
  5786  001780  2202               	addwfc	i1___ftpack@arg+1,f,c
  5787  001782  0E00               	movlw	0
  5788  001784  2203               	addwfc	i1___ftpack@arg+2,f,c
  5789  001786  90D8               	bcf	status,0,c
  5790  001788  3203               	rrcf	i1___ftpack@arg+2,f,c
  5791  00178A  3202               	rrcf	i1___ftpack@arg+1,f,c
  5792  00178C  3201               	rrcf	i1___ftpack@arg,f,c
  5793  00178E                     i1l1551:
  5794  00178E  0E00               	movlw	0
  5795  001790  1401               	andwf	i1___ftpack@arg,w,c
  5796  001792  6E06               	movwf	??i1___ftpack& (0+255),c
  5797  001794  0E00               	movlw	0
  5798  001796  1402               	andwf	i1___ftpack@arg+1,w,c
  5799  001798  6E07               	movwf	(??i1___ftpack+1)& (0+255),c
  5800  00179A  0EFF               	movlw	255
  5801  00179C  1403               	andwf	i1___ftpack@arg+2,w,c
  5802  00179E  6E08               	movwf	(??i1___ftpack+2)& (0+255),c
  5803  0017A0  5006               	movf	??i1___ftpack,w,c
  5804  0017A2  1007               	iorwf	??i1___ftpack+1,w,c
  5805  0017A4  1008               	iorwf	??i1___ftpack+2,w,c
  5806  0017A6  B4D8               	btfsc	status,2,c
  5807  0017A8  D006               	goto	i1l1555
  5808  0017AA  D7E6               	goto	i1l1547
  5809  0017AC                     i1l1553:
  5810  0017AC  0604               	decf	i1___ftpack@exp,f,c
  5811  0017AE  90D8               	bcf	status,0,c
  5812  0017B0  3601               	rlcf	i1___ftpack@arg,f,c
  5813  0017B2  3602               	rlcf	i1___ftpack@arg+1,f,c
  5814  0017B4  3603               	rlcf	i1___ftpack@arg+2,f,c
  5815  0017B6                     i1l1555:
  5816  0017B6  AE02               	btfss	i1___ftpack@arg+1,7,c
  5817  0017B8  D7F9               	goto	i1l1553
  5818  0017BA  A004               	btfss	i1___ftpack@exp,0,c
  5819  0017BC  9E02               	bcf	i1___ftpack@arg+1,7,c
  5820  0017BE  90D8               	bcf	status,0,c
  5821  0017C0  3204               	rrcf	i1___ftpack@exp,f,c
  5822  0017C2  5004               	movf	i1___ftpack@exp,w,c
  5823  0017C4  1203               	iorwf	i1___ftpack@arg+2,f,c
  5824  0017C6  5005               	movf	i1___ftpack@sign,w,c
  5825  0017C8  A4D8               	btfss	status,2,c
  5826  0017CA  8E03               	bsf	i1___ftpack@arg+2,7,c
  5827  0017CC  C001  F001         	movff	i1___ftpack@arg,?i1___ftpack
  5828  0017D0  C002  F002         	movff	i1___ftpack@arg+1,?i1___ftpack+1
  5829  0017D4  C003  F003         	movff	i1___ftpack@arg+2,?i1___ftpack+2
  5830  0017D8                     i1l538:
  5831  0017D8  0012               	return	
  5832  0017DA  FFFF               	dw	65535	; errata NOP
  5833  0017DC                     __end_ofi1___ftpack:
  5834                           	opt stack 0
  5835                           pclatu	equ	0xFFB
  5836                           pclath	equ	0xFFA
  5837                           tblptru	equ	0xFF8
  5838                           tblptrh	equ	0xFF7
  5839                           tblptrl	equ	0xFF6
  5840                           tablat	equ	0xFF5
  5841                           prodh	equ	0xFF4
  5842                           prodl	equ	0xFF3
  5843                           intcon	equ	0xFF2
  5844                           intcon2	equ	0xFF1
  5845                           postinc0	equ	0xFEE
  5846                           fsr0h	equ	0xFEA
  5847                           fsr0l	equ	0xFE9
  5848                           wreg	equ	0xFE8
  5849                           postinc1	equ	0xFE6
  5850                           postdec1	equ	0xFE5
  5851                           fsr1h	equ	0xFE2
  5852                           fsr1l	equ	0xFE1
  5853                           bsr	equ	0xFE0
  5854                           indf2	equ	0xFDF
  5855                           postinc2	equ	0xFDE
  5856                           fsr2h	equ	0xFDA
  5857                           fsr2l	equ	0xFD9
  5858                           status	equ	0xFD8
  5859                           
  5860 ;; *************** function _high_isr *****************
  5861 ;; Defined at:
  5862 ;;		line 81 in file "main.c"
  5863 ;; Parameters:    Size  Location     Type
  5864 ;;		None
  5865 ;; Auto vars:     Size  Location     Type
  5866 ;;		None
  5867 ;; Return value:  Size  Location     Type
  5868 ;;		None               void
  5869 ;; Registers used:
  5870 ;;		None
  5871 ;; Tracked objects:
  5872 ;;		On entry : 0/0
  5873 ;;		On exit  : 0/0
  5874 ;;		Unchanged: 0/0
  5875 ;; Data sizes:     COMRAM   BANK0   BANK1   BANK2   BANK3   BANK4   BANK5
  5876 ;;      Params:         0       0       0       0       0       0       0
  5877 ;;      Locals:         0       0       0       0       0       0       0
  5878 ;;      Temps:          0      14       0       0       0       0       0
  5879 ;;      Totals:         0      14       0       0       0       0       0
  5880 ;;Total ram usage:       14 bytes
  5881 ;; Hardware stack levels used:    1
  5882 ;; This function calls:
  5883 ;;		Nothing
  5884 ;; This function is called by:
  5885 ;;		Interrupt level 2
  5886 ;; This function uses a non-reentrant model
  5887 ;;
  5888                           
  5889                           	psect	intcode
  5890  000008                     __pintcode:
  5891                           	opt stack 0
  5892  000008                     _high_isr:
  5893                           	opt stack 22
  5894                           
  5895                           ;incstack = 0
  5896  000008  FFFF               	dw	65535	; errata NOP
  5897  00000A  CFFA F091          	movff	pclath,??_high_isr
  5898  00000E  CFFB F092          	movff	pclatu,??_high_isr+1
  5899  000012  EF42  F00C         	goto	int_func
  5900                           pclatu	equ	0xFFB
  5901                           pclath	equ	0xFFA
  5902                           tblptru	equ	0xFF8
  5903                           tblptrh	equ	0xFF7
  5904                           tblptrl	equ	0xFF6
  5905                           tablat	equ	0xFF5
  5906                           prodh	equ	0xFF4
  5907                           prodl	equ	0xFF3
  5908                           intcon	equ	0xFF2
  5909                           intcon2	equ	0xFF1
  5910                           postinc0	equ	0xFEE
  5911                           fsr0h	equ	0xFEA
  5912                           fsr0l	equ	0xFE9
  5913                           wreg	equ	0xFE8
  5914                           postinc1	equ	0xFE6
  5915                           postdec1	equ	0xFE5
  5916                           fsr1h	equ	0xFE2
  5917                           fsr1l	equ	0xFE1
  5918                           bsr	equ	0xFE0
  5919                           indf2	equ	0xFDF
  5920                           postinc2	equ	0xFDE
  5921                           fsr2h	equ	0xFDA
  5922                           fsr2l	equ	0xFD9
  5923                           status	equ	0xFD8
  5924                           
  5925                           	psect	intcode_body
  5926  001884                     __pintcode_body:
  5927                           	opt stack 22
  5928  001884                     int_func:
  5929                           	opt stack 22
  5930  001884  FFFF               	dw	65535	; errata NOP
  5931  001886  CFE9 F093          	movff	fsr0l,??_high_isr+2
  5932  00188A  CFEA F094          	movff	fsr0h,??_high_isr+3
  5933  00188E  CFE1 F095          	movff	fsr1l,??_high_isr+4
  5934  001892  CFE2 F096          	movff	fsr1h,??_high_isr+5
  5935  001896  CFD9 F097          	movff	fsr2l,??_high_isr+6
  5936  00189A  CFDA F098          	movff	fsr2h,??_high_isr+7
  5937  00189E  CFF3 F099          	movff	prodl,??_high_isr+8
  5938  0018A2  CFF4 F09A          	movff	prodh,??_high_isr+9
  5939  0018A6  CFF6 F09B          	movff	tblptrl,??_high_isr+10
  5940  0018AA  CFF7 F09C          	movff	tblptrh,??_high_isr+11
  5941  0018AE  CFF8 F09D          	movff	tblptru,??_high_isr+12
  5942  0018B2  CFF5 F09E          	movff	tablat,??_high_isr+13
  5943  0018B6  C09E  FFF5         	movff	??_high_isr+13,tablat
  5944  0018BA  C09D  FFF8         	movff	??_high_isr+12,tblptru
  5945  0018BE  C09C  FFF7         	movff	??_high_isr+11,tblptrh
  5946  0018C2  C09B  FFF6         	movff	??_high_isr+10,tblptrl
  5947  0018C6  C09A  FFF4         	movff	??_high_isr+9,prodh
  5948  0018CA  C099  FFF3         	movff	??_high_isr+8,prodl
  5949  0018CE  C098  FFDA         	movff	??_high_isr+7,fsr2h
  5950  0018D2  C097  FFD9         	movff	??_high_isr+6,fsr2l
  5951  0018D6  C096  FFE2         	movff	??_high_isr+5,fsr1h
  5952  0018DA  C095  FFE1         	movff	??_high_isr+4,fsr1l
  5953  0018DE  C094  FFEA         	movff	??_high_isr+3,fsr0h
  5954  0018E2  C093  FFE9         	movff	??_high_isr+2,fsr0l
  5955  0018E6  C092  FFFB         	movff	??_high_isr+1,pclatu
  5956  0018EA  C091  FFFA         	movff	??_high_isr,pclath
  5957  0018EE  0011               	retfie		f
  5958  0018F0  FFFF               	dw	65535	; errata NOP
  5959  0018F2                     __end_of_high_isr:
  5960                           	opt stack 0
  5961                           pclatu	equ	0xFFB
  5962                           pclath	equ	0xFFA
  5963                           tblptru	equ	0xFF8
  5964                           tblptrh	equ	0xFF7
  5965                           tblptrl	equ	0xFF6
  5966                           tablat	equ	0xFF5
  5967                           prodh	equ	0xFF4
  5968                           prodl	equ	0xFF3
  5969                           intcon	equ	0xFF2
  5970                           intcon2	equ	0xFF1
  5971                           postinc0	equ	0xFEE
  5972                           fsr0h	equ	0xFEA
  5973                           fsr0l	equ	0xFE9
  5974                           wreg	equ	0xFE8
  5975                           postinc1	equ	0xFE6
  5976                           postdec1	equ	0xFE5
  5977                           fsr1h	equ	0xFE2
  5978                           fsr1l	equ	0xFE1
  5979                           bsr	equ	0xFE0
  5980                           indf2	equ	0xFDF
  5981                           postinc2	equ	0xFDE
  5982                           fsr2h	equ	0xFDA
  5983                           fsr2l	equ	0xFD9
  5984                           status	equ	0xFD8
  5985                           pclatu	equ	0xFFB
  5986                           pclath	equ	0xFFA
  5987                           tblptru	equ	0xFF8
  5988                           tblptrh	equ	0xFF7
  5989                           tblptrl	equ	0xFF6
  5990                           tablat	equ	0xFF5
  5991                           prodh	equ	0xFF4
  5992                           prodl	equ	0xFF3
  5993                           intcon	equ	0xFF2
  5994                           intcon2	equ	0xFF1
  5995                           postinc0	equ	0xFEE
  5996                           fsr0h	equ	0xFEA
  5997                           fsr0l	equ	0xFE9
  5998                           wreg	equ	0xFE8
  5999                           postinc1	equ	0xFE6
  6000                           postdec1	equ	0xFE5
  6001                           fsr1h	equ	0xFE2
  6002                           fsr1l	equ	0xFE1
  6003                           bsr	equ	0xFE0
  6004                           indf2	equ	0xFDF
  6005                           postinc2	equ	0xFDE
  6006                           fsr2h	equ	0xFDA
  6007                           fsr2l	equ	0xFD9
  6008                           status	equ	0xFD8
  6009                           
  6010                           	psect	param0
  6011  0000                     pclatu	equ	0xFFB
  6012                           pclath	equ	0xFFA
  6013                           tblptru	equ	0xFF8
  6014                           tblptrh	equ	0xFF7
  6015                           tblptrl	equ	0xFF6
  6016                           tablat	equ	0xFF5
  6017                           prodh	equ	0xFF4
  6018                           prodl	equ	0xFF3
  6019                           intcon	equ	0xFF2
  6020                           intcon2	equ	0xFF1
  6021                           postinc0	equ	0xFEE
  6022                           fsr0h	equ	0xFEA
  6023                           fsr0l	equ	0xFE9
  6024                           wreg	equ	0xFE8
  6025                           postinc1	equ	0xFE6
  6026                           postdec1	equ	0xFE5
  6027                           fsr1h	equ	0xFE2
  6028                           fsr1l	equ	0xFE1
  6029                           bsr	equ	0xFE0
  6030                           indf2	equ	0xFDF
  6031                           postinc2	equ	0xFDE
  6032                           fsr2h	equ	0xFDA
  6033                           fsr2l	equ	0xFD9
  6034                           status	equ	0xFD8


Data Sizes:
    Strings     0
    Constant    36
    Data        18
    BSS         24
    Persistent  0
    Stack       0

Auto Spaces:
    Space          Size  Autos    Used
    COMRAM          127     76      89
    BANK0           128     88      96
    BANK1           256     26      47
    BANK2           256      0       0
    BANK3           256      0       0
    BANK4           256      0       0
    BANK5           256      0       0

Pointer List with Targets:

    DisplayLCD@tempPtr	PTR unsigned char  size(2) Largest target is 8
		 -> Msg3(BANK0[8]), main@Msg2(BANK1[5]), main@Msg1(BANK1[6]), main@LCDinit(BANK1[7]), 


Critical Paths under _main in COMRAM

    None.

Critical Paths under _high_isr in COMRAM

    None.

Critical Paths under _low_isr in COMRAM

    _low_isr->_ReadEncoder
    _fabs->i1___ftneg
    _ReadEncoder->___ftsub
    i1___ftdiv->i1___awtoft
    i1___awtoft->i1___ftpack
    ___ftsub->i1___ftadd
    i1___ftadd->i1___ftdiv

Critical Paths under _TimerStopped in COMRAM

    None.

Critical Paths under _main in BANK0

    _main->_WriteLCD
    _WriteLCD->___ftmul
    ___ftneg->___awtoft
    ___ftmul->___ftadd
    ___ftdiv->___ftpack
    ___ftadd->___ftneg
    ___awtoft->___fttol
    _DisplayLCD->_Delay100TCYx
    _DisplayLCD->_Delay10TCYx
    _DisplayLCD->_Delay1KTCYx
    _InitApp->_WaitHalfSec
    _WaitHalfSec->_Delay1KTCYx

Critical Paths under _high_isr in BANK0

    None.

Critical Paths under _low_isr in BANK0

    None.

Critical Paths under _TimerStopped in BANK0

    None.

Critical Paths under _main in BANK1

    _main->_WriteLCD

Critical Paths under _high_isr in BANK1

    None.

Critical Paths under _low_isr in BANK1

    None.

Critical Paths under _TimerStopped in BANK1

    None.

Critical Paths under _main in BANK2

    None.

Critical Paths under _high_isr in BANK2

    None.

Critical Paths under _low_isr in BANK2

    None.

Critical Paths under _TimerStopped in BANK2

    None.

Critical Paths under _main in BANK3

    None.

Critical Paths under _high_isr in BANK3

    None.

Critical Paths under _low_isr in BANK3

    None.

Critical Paths under _TimerStopped in BANK3

    None.

Critical Paths under _main in BANK4

    None.

Critical Paths under _high_isr in BANK4

    None.

Critical Paths under _low_isr in BANK4

    None.

Critical Paths under _TimerStopped in BANK4

    None.

Critical Paths under _main in BANK5

    None.

Critical Paths under _high_isr in BANK5

    None.

Critical Paths under _low_isr in BANK5

    None.

Critical Paths under _TimerStopped in BANK5

    None.

Call Graph Tables:

 ---------------------------------------------------------------------------------
 (Depth) Function   	        Calls       Base Space   Used Autos Params    Refs
 ---------------------------------------------------------------------------------
 (0) _main                                                19    19      0   16054
                                             87 BANK0      1     1      0
                                              8 BANK1     18    18      0
                        _CloseTimer0
                        _Delay1KTCYx
                         _DisplayLCD
                            _InitApp
                     _InitInterrupts
                           _WriteLCD
                        _WriteTimer0
 ---------------------------------------------------------------------------------
 (1) _WriteTimer0                                          4     2      2     149
                                             31 BANK0      4     2      2
 ---------------------------------------------------------------------------------
 (1) _WriteLCD                                            15     8      7   14727
                                             80 BANK0      7     0      7
                                              0 BANK1      8     8      0
                         _DisplayLCD
                           ___awtoft
                            ___ftadd
                            ___ftdiv
                             ___ftge
                            ___ftmul
                            ___ftneg
                            ___fttol
 ---------------------------------------------------------------------------------
 (2) ___fttol                                             15    11      4     501
                                             31 BANK0     15    11      4
 ---------------------------------------------------------------------------------
 (2) ___ftneg                                              3     0      3     160
                                             50 BANK0      3     0      3
                           ___awtoft (ARG)
                            ___fttol (ARG)
 ---------------------------------------------------------------------------------
 (2) ___ftmul                                             15     9      6    2875
                                             65 BANK0     15     9      6
                           ___awtoft (ARG)
                            ___ftadd (ARG)
                            ___ftneg (ARG)
                           ___ftpack
                            ___fttol (ARG)
 ---------------------------------------------------------------------------------
 (2) ___ftge                                               9     3      6     718
                                             31 BANK0      9     3      6
 ---------------------------------------------------------------------------------
 (2) ___ftdiv                                             15     9      6    2857
                                             39 BANK0     15     9      6
                           ___ftpack
 ---------------------------------------------------------------------------------
 (2) ___ftadd                                             12     6      6    3602
                                             53 BANK0     12     6      6
                           ___awtoft (ARG)
                            ___ftneg (ARG)
                           ___ftpack
                            ___fttol (ARG)
 ---------------------------------------------------------------------------------
 (2) ___awtoft                                             4     1      3    2355
                                             46 BANK0      4     1      3
                           ___ftpack
                            ___fttol (ARG)
 ---------------------------------------------------------------------------------
 (3) ___ftpack                                             8     3      5    2037
                                             31 BANK0      8     3      5
 ---------------------------------------------------------------------------------
 (2) _DisplayLCD                                           5     1      4     910
                                             32 BANK0      5     1      4
                       _Delay100TCYx
                        _Delay10TCYx
                        _Delay1KTCYx
 ---------------------------------------------------------------------------------
 (3) _Delay10TCYx                                          1     1      0      31
                                             31 BANK0      1     1      0
 ---------------------------------------------------------------------------------
 (3) _Delay100TCYx                                         1     1      0      31
                                             31 BANK0      1     1      0
 ---------------------------------------------------------------------------------
 (1) _InitInterrupts                                       0     0      0       0
 ---------------------------------------------------------------------------------
 (1) _InitApp                                              0     0      0      99
                        _WaitHalfSec
 ---------------------------------------------------------------------------------
 (2) _WaitHalfSec                                          2     2      0      99
                                             32 BANK0      2     2      0
                        _Delay1KTCYx
 ---------------------------------------------------------------------------------
 (3) _Delay1KTCYx                                          1     1      0      31
                                             31 BANK0      1     1      0
 ---------------------------------------------------------------------------------
 (1) _CloseTimer0                                          0     0      0       0
 ---------------------------------------------------------------------------------
 Estimated maximum stack depth 3
 ---------------------------------------------------------------------------------
 (Depth) Function   	        Calls       Base Space   Used Autos Params    Refs
 ---------------------------------------------------------------------------------
 (4) _low_isr                                             17    17      0    5910
                                             59 COMRAM    17    17      0
                        _ReadEncoder
                               _fabs
                      i1_WriteTimer0
                          i1___ftdiv
 ---------------------------------------------------------------------------------
 (5) i1_WriteTimer0                                        4     2      2      93
                                              0 COMRAM     4     2      2
 ---------------------------------------------------------------------------------
 (5) _fabs                                                 3     0      3     190
                                              3 COMRAM     3     0      3
                          i1___ftneg
 ---------------------------------------------------------------------------------
 (6) i1___ftneg                                            3     0      3      71
                                              0 COMRAM     3     0      3
 ---------------------------------------------------------------------------------
 (5) _ReadEncoder                                         14    14      0    4748
                                             45 COMRAM    14    14      0
                            ___ftsub
                         i1___awtoft
                          i1___ftadd
                          i1___ftdiv
 ---------------------------------------------------------------------------------
 (5) i1___ftdiv                                           15     9      6     879
                                             12 COMRAM    15     9      6
                               _fabs (ARG)
                         i1___awtoft (ARG)
                         i1___ftpack
 ---------------------------------------------------------------------------------
 (6) i1___awtoft                                           4     1      3     638
                                              8 COMRAM     4     1      3
                         i1___ftpack
 ---------------------------------------------------------------------------------
 (6) ___ftsub                                              6     0      6    1618
                                             39 COMRAM     6     0      6
                         i1___awtoft (ARG)
                          i1___ftadd
                          i1___ftdiv (ARG)
 ---------------------------------------------------------------------------------
 (6) i1___ftadd                                           12     6      6    1387
                                             27 COMRAM    12     6      6
                         i1___awtoft (ARG)
                          i1___ftdiv (ARG)
                         i1___ftpack
 ---------------------------------------------------------------------------------
 (6) i1___ftpack                                           8     3      5     443
                                              0 COMRAM     8     3      5
 ---------------------------------------------------------------------------------
 Estimated maximum stack depth 6
 ---------------------------------------------------------------------------------
 (Depth) Function   	        Calls       Base Space   Used Autos Params    Refs
 ---------------------------------------------------------------------------------
 (4) _TimerStopped                                        17    17      0       0
                                              0 BANK0     17    17      0
 ---------------------------------------------------------------------------------
 Estimated maximum stack depth 4
 ---------------------------------------------------------------------------------
 (Depth) Function   	        Calls       Base Space   Used Autos Params    Refs
 ---------------------------------------------------------------------------------
 (9) _high_isr                                            14    14      0       0
                                             17 BANK0     14    14      0
 ---------------------------------------------------------------------------------
 Estimated maximum stack depth 9
 ---------------------------------------------------------------------------------

 Call Graph Graphs:

 _main (ROOT)
   _CloseTimer0
   _Delay1KTCYx
   _DisplayLCD
     _Delay100TCYx
     _Delay10TCYx
     _Delay1KTCYx
   _InitApp
     _WaitHalfSec
       _Delay1KTCYx
   _InitInterrupts
   _WriteLCD
     _DisplayLCD
       _Delay100TCYx
       _Delay10TCYx
       _Delay1KTCYx
     ___awtoft
       ___ftpack
       ___fttol (ARG)
     ___ftadd
       ___awtoft (ARG)
         ___ftpack
         ___fttol (ARG)
       ___ftneg (ARG)
         ___awtoft (ARG)
           ___ftpack
           ___fttol (ARG)
         ___fttol (ARG)
       ___ftpack (ARG)
       ___fttol (ARG)
     ___ftdiv
       ___ftpack
     ___ftge
     ___ftmul
       ___awtoft (ARG)
         ___ftpack
         ___fttol (ARG)
       ___ftadd (ARG)
         ___awtoft (ARG)
           ___ftpack
           ___fttol (ARG)
         ___ftneg (ARG)
           ___awtoft (ARG)
             ___ftpack
             ___fttol (ARG)
           ___fttol (ARG)
         ___ftpack (ARG)
         ___fttol (ARG)
       ___ftneg (ARG)
         ___awtoft (ARG)
           ___ftpack
           ___fttol (ARG)
         ___fttol (ARG)
       ___ftpack (ARG)
       ___fttol (ARG)
     ___ftneg
       ___awtoft (ARG)
         ___ftpack
         ___fttol (ARG)
       ___fttol (ARG)
     ___fttol
   _WriteTimer0

 _low_isr (ROOT)
   _ReadEncoder
     ___ftsub
       i1___awtoft (ARG)
         i1___ftpack
       i1___ftadd (ARG)
         i1___awtoft (ARG)
           i1___ftpack
         i1___ftdiv (ARG)
           _fabs (ARG)
             i1___ftneg
           i1___awtoft (ARG)
             i1___ftpack
           i1___ftpack (ARG)
         i1___ftpack (ARG)
       i1___ftdiv (ARG)
         _fabs (ARG)
           i1___ftneg
         i1___awtoft (ARG)
           i1___ftpack
         i1___ftpack (ARG)
     i1___awtoft
       i1___ftpack
     i1___ftadd
       i1___awtoft (ARG)
         i1___ftpack
       i1___ftdiv (ARG)
         _fabs (ARG)
           i1___ftneg
         i1___awtoft (ARG)
           i1___ftpack
         i1___ftpack (ARG)
       i1___ftpack (ARG)
     i1___ftdiv
       _fabs (ARG)
         i1___ftneg
       i1___awtoft (ARG)
         i1___ftpack
       i1___ftpack (ARG)
   _fabs
     i1___ftneg
   i1_WriteTimer0
   i1___ftdiv
     _fabs (ARG)
       i1___ftneg
     i1___awtoft (ARG)
       i1___ftpack
     i1___ftpack (ARG)

 _TimerStopped (ROOT)

 _high_isr (ROOT)

 Address spaces:
Name               Size   Autos  Total    Cost      Usage
BIGRAM             5FF      0       0      17        0.0%
EEDATA             100      0       0       0        0.0%
BITBANK5           100      0       0      16        0.0%
BANK5              100      0       0      14        0.0%
BITBANK4           100      0       0      12        0.0%
BANK4              100      0       0      13        0.0%
BITBANK3           100      0       0      10        0.0%
BANK3              100      0       0      11        0.0%
BITBANK2           100      0       0       8        0.0%
BANK2              100      0       0       9        0.0%
BITBANK1           100      0       0       6        0.0%
BANK1              100     1A      2F       7       18.4%
BITBANK0            80      0       0       4        0.0%
BANK0               80     58      60       5       75.0%
BITCOMRAM           7F      0       0       0        0.0%
COMRAM              7F     4C      59       1       70.1%
BITSFR               0      0       0      40        0.0%
SFR                  0      0       0      40        0.0%
STACK                0      0       0       2        0.0%
NULL                 0      0       0       0        0.0%
ABS                  0      0      E8      15        0.0%
DATA                 0      0      E8       3        0.0%
CODE                 0      0       0       0        0.0%


Microchip Technology PIC18 Macro Assembler V1.33 build 59893 
Symbol Table                                                                                   Sun Sep 21 23:29:27 2014

                                                            i1___awtoft 199E  
                                                            i1___ftpack 1730  
                                                           __CFG_BOR$ON 000000  
                                                                    bsr 000FE0  
                                                          __CFG_CP0$OFF 000000  
                                                          __CFG_CP1$OFF 000000  
                                                          __CFG_CP2$OFF 000000  
                                                          __CFG_CP3$OFF 000000  
                                                           __CFG_OSC$HS 000000  
                                                          ___ftadd@exp1 00C0  
                                                          ___ftadd@exp2 00BF  
                                                          ___ftadd@sign 00BE  
                                                                   l153 1880  
                                                                   l145 183A  
                                                                   l430 1BA4  
                                                                   l610 12EC  
                                                                   l444 1BBA  
                                                                   l437 1B76  
                                                                   l622 108E  
                                                                   l607 1326  
                                                                   l616 172C  
                                                                   l632 1B06  
                                                                   l538 157A  
                                                                   l642 11DC  
                                                                   l581 097A  
                                                                   _CHA 0052  
                                                                   l590 0A64  
                                                                   _CHB 0054  
                                                                   l575 0918  
                                                                   l576 0B2A  
                                                                   l579 0952  
                                                                   l599 0A8E  
                                                          i1___ftadd@f1 001C  
                                                          i1___ftadd@f2 001F  
                                                          __CFG_CPB$OFF 000000  
                                                                   _PR2 000FCB  
                                                          __CFG_CPD$OFF 000000  
                                                                   _QEM 0601  
                                                                   _RPS 012C  
                                                  __size_of_WriteTimer0 0016  
                                                          i1___ftdiv@f1 000D  
                                                          i1___ftdiv@f2 0010  
                                                          i1___ftdiv@f3 0017  
                                                          __CFG_BORV$45 000000  
                                                          i1___ftneg@f1 0001  
                                                                   wreg 000FE8  
                                                          i1___awtoft@c 0009  
                                                          __CFG_LVP$OFF 000000  
                                                          ___ftdiv@cntr 00B0  
                                                          __CFG_OSCS$ON 000000  
                                                          ___ftdiv@sign 00B5  
                                                          __CFG_WDT$OFF 000000  
                                                                  l2321 183E  
                                                                  l2401 0A46  
                                                                  l2403 0A5A  
                                                                  l2261 148A  
                                                                  l2351 1A96  
                                                                  l2343 1872  
                                                                  l2319 182A  
                                                                  l2281 1554  
                                                                  l2273 1504  
                                                                  l2265 149E  
                                                                  l2409 0AB8  
                                                                  l2361 0926  
                                                                  l2505 1026  
                                                                  l2347 1A7C  
                                                                  l2275 1530  
                                                                  l2267 14B2  
                                                                  l2419 0B06  
                                                                  l2435 1244  
                                                                  l2277 1544  
                                                                  l2269 14DE  
                                                                  l2525 1922  
                                                                  l2373 0970  
                                                                  l2429 120A  
                                                                  l2533 16A0  
                                                                  l2509 1044  
                                                                  l2701 1440  
                                                                  l2287 156E  
                                                                  l2391 09FA  
                                                                  l2383 09B2  
                                                                  l2367 0960  
                                                                  l2455 12A4  
                                                                  l2543 172A  
                                                                  l2631 0646  
                                                                  l2297 17F2  
                                                                  l2393 0A06  
                                                                  l2537 16E6  
                                                                  l2481 0F8E  
                                                                  l2395 0A12  
                                                                  l2475 0F54  
                                                                  l2635 069C  
                                                                  l2389 09E6  
                                                                  l2557 10BC  
                                                                  l2645 07AC  
                                                                  l2661 084E  
                                                                  l2495 0FDC  
                                                                  l2575 114A  
                                                                  l2593 11CC  
                                                                  l2585 1188  
                                                                  l2657 0830  
                                                                  l2499 0FFA  
                                                                  l2587 11A0  
                                                                  l2579 1166  
                                                                  l2589 11A6  
                                                                  u2401 08C4  
                                                                  u2411 08E4  
                                                                  u2611 11FA  
                                                                  u2631 1222  
                                                                  u2640 1230  
                                                                  u2820 116E  
                                                                  u2661 0F44  
                                                                  u2911 1336  
                                                                  u2681 0F6C  
                                                                  u2921 1348  
                                                                  u2690 0F7A  
                                                                  u2771 10AC  
                                                                  u2931 135A  
                                                                  u2940 13D2  
                                                                  u2790 10E8  
                                                                  u2950 13EA  
                                                                  u2795 10DE  
                                                                  u2948 13D6  
                                                                  u2958 13EE  
                                                                  i1l71 00C0  
                                                                  u2967 1B78  
                                                                  u2977 1BA6  
                                                                  u2987 1BBC  
                                                                  i1l68 006A  
                                                          __CFG_PWRT$ON 000000  
                                                                  _Msg3 00D8  
                                                          __CFG_STVR$ON 000000  
                                                                  _fabs 19EA  
                                                                  _main 132A  
                                                          ___ftpack@arg 009F  
                                                          ___ftpack@exp 00A2  
                                                                  fsr0h 000FEA  
                                                                  fsr1h 000FE2  
                                                                  fsr0l 000FE9  
                                                                  fsr2h 000FDA  
                                                                  fsr1l 000FE1  
                                                                  indf2 000FDF  
                                                                  fsr2l 000FD9  
                                                                  pclat 000FFA  
                                                   i1WriteTimer0@timer0 0001  
                                                         i1___ftdiv@exp 001A  
                                                                  prodh 000FF4  
                                                                  prodl 000FF3  
                                                                  start 019E  
                                                         ??_ReadEncoder 002E  
                                                   __end_of_EncoderPoll 0625  
                                                   __end_of_CloseTimer0 1BFC  
                                                          ___ftmul@cntr 00CE  
                                                          ___ftmul@sign 00CF  
                                                       __end_of_InitApp 1A6C  
                                                           _Delay10TCYx 1B70  
                                                          ___fttol@exp1 00AD  
                                                          ___fttol@lval 00A9  
                                                           _Delay1KTCYx 1BB4  
                                                                 ?_fabs 0004  
                                                                 ?_main 0001  
                                                         i1_WriteTimer0 1BCA  
                                                       __end_of___ftadd 0B2E  
                                                 __size_of_Delay100TCYx 0016  
                                                       __end_of___ftdiv 132A  
                                                       __end_of___ftneg 1B16  
                                                       __end_of___ftmul 1092  
                                                       __end_of___ftsub 1AE0  
                                                       __end_of___fttol 11E0  
                                                                 _LATB4 007C54  
                                                                 i1l190 0156  
                                                                 i1l167 0D58  
                                                                 i1l159 0BDA  
                                                                 i1l610 1624  
                                                                 i1l607 1654  
                                                                 i1l632 1B60  
                                                                 i1l538 17D8  
                                                                 i1l466 1A20  
                                                                 i1l467 1A2C  
                                                                 i1l590 0E9A  
                                                                 i1l575 0DC2  
                                                                 i1l576 0F26  
                                                                 i1l579 0DEE  
                                                                 i1l599 0EB6  
                                                                 _TMR0H 000FD7  
                                                                 _TMR0L 000FD6  
                                                                 _PORTA 000F80  
                                                                 _PORTD 000F83  
                                                        i1___ftadd@exp1 0027  
                                                        i1___ftadd@exp2 0026  
                                                                 _TRISA 000F92  
                                                                 _TRISD 000F95  
                                                                 _TRISE 000F96  
                                                        i1___ftadd@sign 0025  
                                                         __CFG_WRT0$OFF 000000  
                                                         __CFG_WRT1$OFF 000000  
                                                         __CFG_WRT2$OFF 000000  
                                                         __CFG_WRT3$OFF 000000  
                                                            _DisplayLCD 17DC  
                                                        __CFG_EBTR0$OFF 000000  
                                                        __CFG_EBTR1$OFF 000000  
                                                        __CFG_EBTR2$OFF 000000  
                                                        __CFG_EBTR3$OFF 000000  
                                                         __CFG_WRTB$OFF 000000  
                                                         __CFG_WRTC$OFF 000000  
                                                         __CFG_WRTD$OFF 000000  
                                                        __CFG_EBTRB$OFF 000000  
                                                         ___awtoft@sign 00B1  
                                                                 fabs@d 0004  
                                                         ___ftpack@sign 00A3  
                                                       __end_of_low_isr 0108  
                                                                 tablat 000FF5  
                                                        i1___ftdiv@cntr 0016  
                                                        i1___ftdiv@sign 001B  
                                                   __end_of_CountPerRev 0623  
                                                                 status 000FD8  
                                                    __size_ofi1___ftadd 01B0  
                                                    __size_ofi1___ftdiv 00DA  
                                                    __size_ofi1___ftneg 002A  
                                                        i1___ftpack@arg 0001  
                                                        i1___ftpack@exp 0004  
                                                       __initialization 1950  
                                                          __end_of_fabs 1A30  
                                                          _Delay100TCYx 1B9E  
                                                          __end_of_main 1470  
                                                        _InitInterrupts 1B16  
                                                           ?i1___awtoft 0009  
                                                           ?i1___ftpack 0001  
                                                   __end_of_ReadEncoder 0D7A  
                                                        ?i1_WriteTimer0 0001  
                                                                ??_fabs 0007  
                                                                ??_main 00D7  
                                                         ___fttol@sign1 00A8  
                                                         __activetblptr 000001  
                                                            _PartialRot 004D  
                                                       __CFG_CCP2MUX$ON 000000  
                                                 DisplayLCD@currentChar 00A4  
                                                                _ADCON1 000FC1  
                                                                _CCPR1L 000FBE  
                                                      __end_of___awtoft 1950  
                                                      __end_of___ftpack 157E  
                                                      __end_of_WriteLCD 08AA  
                                                         ??_WaitHalfSec 00A0  
                                                                i1l2005 19C4  
                                                                i1l2021 15C0  
                                                                i1l2015 159A  
                                                                i1l2041 15FE  
                                                                i1l2151 0BF8  
                                                                u200_21 1590  
                                                                i1l2163 0CC8  
                                                                i1l2171 0D6E  
                                                                i1l2155 0C06  
                                                                i1l2147 0BEA  
                                                                i1l1551 178E  
                                                                i1l1543 1750  
                                                                i1l1623 0DD0  
                                                                i1l1553 17AC  
                                                                i1l1545 175A  
                                                                i1l2169 0D5E  
                                                                i1l1555 17B6  
                                                                i1l1547 1778  
                                                                i1l1539 1742  
                                                                i1l1651 0E4E  
                                                                i1l1653 0E58  
                                                                i1l1645 0E2C  
                                                                i1l1629 0DFC  
                                                                i1l1671 0ED2  
                                                                i1l1663 0E8A  
                                                                i1l1655 0E60  
                                                                i1l1681 0F02  
                                                                i1l1665 0E94  
                                                                i1l1657 0E68  
                                                                u130_21 0DA0  
                                                                u202_21 15AA  
                                                                u129_21 0D8C  
                                                           _EncoderPoll 0623  
                                                           _CloseTimer0 1BF2  
                                                        __CFG_WDTPS$128 000000  
                                                                _CWTurn 0056  
                                                             ??_InitApp 00A2  
                                                __end_of_InitInterrupts 1B46  
                                                      __end_of_high_isr 18F2  
                                                                ___ftge 1658  
                                                             ??___ftadd 00BB  
                                                             ??___ftdiv 00AD  
                                                             ??___ftneg 00B5  
                                                             ??___ftmul 00C7  
                                                             ??___ftsub 002E  
                                                             ??___fttol 00A3  
                                                                clear_0 195E  
                                                                clear_1 196A  
                                                 ___ftmul@f3_as_product 00CB  
                                                     __end_ofi1___ftadd 0F2A  
                                                     __end_ofi1___ftdiv 1658  
                                                     __end_ofi1___ftneg 1B70  
                                                          __mediumconst 0000  
                                                           ?_DisplayLCD 00A0  
                                                             ??_low_isr 003C  
                                                                tblptrh 000FF7  
                                                                tblptrl 000FF6  
                                                                tblptru 000FF8  
                                                           _CountPerRev 0621  
                                                   __size_ofi1___awtoft 004C  
                                                   __size_ofi1___ftpack 00AC  
                                                            __accesstop 0080  
                                               __end_of__initialization 1990  
                                                       i1___awtoft@sign 000C  
                                                            ___ftadd@f1 00B5  
                                                            ___ftadd@f2 00B8  
                                                            ___ftge@ff1 009F  
                                                            ___ftge@ff2 00A2  
                                                       i1___ftpack@sign 0005  
                                                            ___ftdiv@f1 00A7  
                                                            ___ftdiv@f2 00AA  
                                                            ___ftdiv@f3 00B1  
                                                            ___ftneg@f1 00B2  
                                                            ___awtoft@c 00AE  
                                                   __end_of_WaitHalfSec 1AA6  
                                                       ?_InitInterrupts 0001  
                                                            ___ftmul@f1 00C1  
                                                            ___ftmul@f2 00C4  
                                                           _ReadEncoder 0B2E  
                                                            ___ftsub@f1 0028  
                                                            ___ftsub@f2 002B  
                                                            ___fttol@f1 009F  
                                                        __pcstackCOMRAM 0001  
                                                          __pidataBANK1 1BE0  
                                                       ??i1_WriteTimer0 0003  
                                                            __pbssBANK0 00D8  
                                                            __pbssBANK1 012C  
                                                            WriteLCD@ii 0106  
                                                   __size_of_DisplayLCD 00A8  
                                                               ?___ftge 009F  
                                                          ?_Delay10TCYx 0001  
                                                          ?_Delay1KTCYx 0001  
                                                      WriteTimer0@timer 00A1  
                                                         ??_WriteTimer0 00A1  
                                                             ?___awtoft 00AE  
                                                             ?___ftpack 009F  
                                                             ?_WriteLCD 00D0  
                                                               _CCWTurn 0050  
                                                               _OLD_ROT 0058  
                                                             ?_high_isr 0001  
                                                           _WaitHalfSec 1A6C  
                                                         ?_TimerStopped 0001  
                                                               _InitApp 1A30  
                                                               __Hparam 0000  
                                                               __Lparam 0000  
                                                       __size_of___ftge 00D8  
                                                          ??i1___awtoft 000C  
                                                          ??i1___ftpack 0006  
                                                               ___ftadd 08AA  
                                                               ___ftdiv 11E0  
                                                               ___ftneg 1AE0  
                                                               ___ftmul 0F2A  
                                                               ___ftsub 1AA6  
                                                               ___fttol 1092  
                                                          __psmallconst 0600  
                                                               __pcinit 1950  
                                                            ??___awtoft 00B1  
                                                            ??___ftpack 00A4  
                                                            ??_WriteLCD 0100  
                                                       Delay10TCYx@unit 009F  
                                                               __ramtop 0600  
                                                               __ptext0 132A  
                                                               __ptext1 1B88  
                                                               __ptext2 0626  
                                                               __ptext3 1092  
                                                               __ptext4 1AE0  
                                                               __ptext5 0F2A  
                                                               __ptext6 1658  
                                                               __ptext7 11E0  
                                                               __ptext8 08AA  
                                                               __ptext9 18F2  
                                                             _T0CONbits 000FD5  
                                                             _T2CONbits 000FCA  
                                                   __end_of_WriteTimer0 1B9E  
                                                               _low_isr 0018  
                                                            ??_high_isr 0091  
                                                        __pintcode_body 1884  
                                                  end_of_initialization 1990  
                                                        ??_TimerStopped 0080  
                                                    __end_ofi1___awtoft 19EA  
                                                    __end_ofi1___ftpack 17DC  
                                                          ?_CloseTimer0 0001  
                                                               int_func 1884  
                                                               postdec1 000FE5  
                                                               postinc0 000FEE  
                                                               postinc1 000FE6  
                                                               postinc2 000FDE  
                                                             _PORTAbits 000F80  
                                                             _PORTBbits 000F81  
                                                             _PORTEbits 000F84  
                                                          ??_DisplayLCD 00A4  
                                                             _TRISBbits 000F93  
                                                             _TRISCbits 000F94  
                                                             i1___ftadd 0D7A  
                                                             i1___ftdiv 157E  
                                                             i1___ftneg 1B46  
                                                      ??_InitInterrupts 009F  
                                                     DisplayLCD@tempPtr 00A0  
                                                           _CCP1CONbits 000FBD  
                                                           ___ftdiv@exp 00B4  
                                                    i1WriteTimer0@timer 0003  
                                                          ?_ReadEncoder 0001  
                                                           ___ftmul@exp 00CA  
                                                      Delay100TCYx@unit 009F  
                                                    __end_of_DisplayLCD 1884  
                                                        __end_of___ftge 1730  
                                                  __size_of_Delay10TCYx 0018  
                                                           _WriteTimer0 1B88  
                                                  __size_of_Delay1KTCYx 0016  
                                                   start_initialization 1950  
                                                           __end_of_QEM 0621  
                                                            ?i1___ftadd 001C  
                                                            ?i1___ftdiv 000D  
                                                            ?i1___ftneg 0001  
                                                              ??___ftge 00A5  
                                                       ReadEncoder@Anew 0036  
                                                       ReadEncoder@Bnew 0038  
                                                           __pdataBANK1 011A  
                                                 __end_ofi1_WriteTimer0 1BE0  
                                                  __end_of_TimerStopped 019E  
                                                           WriteLCD@var 00D4  
                                                     __size_of___awtoft 005E  
                                                     __size_of___ftpack 010E  
                                                     __size_of_WriteLCD 0284  
                                                           __pbssCOMRAM 004D  
                                                         __pcstackBANK0 0080  
                                                         __pcstackBANK1 0100  
                                                       Delay1KTCYx@unit 009F  
                                                          ?_WaitHalfSec 0001  
                                                     __size_of_high_isr 18EA  
                                                              ?_InitApp 0001  
                                                  __size_of_CloseTimer0 000A  
                                                         ?_Delay100TCYx 0001  
                                                             __pintcode 0008  
                                                              ?___ftadd 00B5  
                                                              ?___ftdiv 00A7  
                                                              ?___ftneg 00B2  
                                                              ?___ftmul 00C1  
                                                              ?___ftsub 0028  
                                                              ?___fttol 009F  
                                                           __pintcodelo 0018  
                                                        DisplayLCD@init 00A2  
                                                  WaitHalfSec@Halfcount 00A0  
                                                           __smallconst 0600  
                                                     WriteTimer0@timer0 009F  
                                                              ?_low_isr 0001  
                                                           ??i1___ftadd 0022  
                                                           ??i1___ftdiv 0013  
                                                           ??i1___ftneg 0004  
                                                              i1u203_20 15B2  
                                                              i1u212_20 0B3A  
                                                              i1u220_25 19FE  
                                                              i1u213_20 0B4C  
                                                              i1u212_28 0B3C  
                                                              i1u213_28 0B4E  
                                                              i1u217_25 0C34  
                                                        ??_Delay100TCYx 009F  
                                                              _RCONbits 000FD0  
                                                             main@F3981 011A  
                                                             main@F3983 0121  
                                                             main@F3985 0127  
                                                  __size_of_ReadEncoder 024C  
                                                           _INTCON2bits 000FF1  
                                                             copy_data0 1984  
                                                              __Hparam0 0000  
                                                      __size_of_InitApp 003C  
                                                              __Lparam0 0000  
                                                          __Lsmallconst 0600  
                                                        ReadEncoder@Old 0032  
                                                        ReadEncoder@New 0034  
                                                 __size_of_TimerStopped 0096  
                                                      __size_of___ftadd 0284  
                                                      __size_of___ftdiv 014A  
                                                      __size_of___ftneg 0036  
                                                      __size_of___ftmul 0168  
                                                      __size_of___ftsub 003A  
                                                      __size_of___fttol 014E  
                                                    ReadEncoder@NEW_ROT 003A  
                                                          ?_WriteTimer0 009F  
                                                              ___awtoft 18F2  
                                                              ___ftpack 1470  
                                                              _WriteLCD 0626  
                                                      __size_of_low_isr 00F0  
                                                              __ptext10 1470  
                                                              __ptext11 17DC  
                                                              __ptext20 1BCA  
                                                              __ptext12 1B70  
                                                              __ptext21 19EA  
                                                              __ptext13 1B9E  
                                                              __ptext22 1B46  
                                                              __ptext14 1B16  
                                                              __ptext23 0B2E  
                                                              __ptext15 1A30  
                                                              __ptext24 157E  
                                                              __ptext16 1A6C  
                                                              __ptext25 199E  
                                                              __ptext17 1BB4  
                                                              __ptext26 1AA6  
                                                              __ptext18 1BF2  
                                                              __ptext27 0D7A  
                                                              __ptext28 1730  
                                                              _high_isr 0008  
                                                          _TimerStopped 0108  
                                                         __size_of_fabs 0046  
                                                         __size_of_main 0146  
                                                  __size_of_WaitHalfSec 003A  
                                                         ??_Delay10TCYx 009F  
                                                      WriteLCD@LCDstart 00D0  
                                                              main@Msg1 010F  
                                                              main@Msg2 0115  
                                                         ??_Delay1KTCYx 009F  
                                                            _INTCONbits 000FF2  
                                                  __end_of_Delay100TCYx 1BB4  
                                                              intlevel1 1BFC  
                                                              intlevel2 1BFC  
                                                    WriteLCD@dispLength 00D2  
                                               __size_of_InitInterrupts 0030  
                                                   __end_of_Delay10TCYx 1B88  
                                                   __end_of_Delay1KTCYx 1BCA  
                                                         ??_CloseTimer0 009F  
                                                           main@LCDinit 0108  
                                                      WriteLCD@firstDec 0104  
                                                __size_ofi1_WriteTimer0 0016  
